(i__main__
CPodDoc
p0
(dp1
S'sequence'
p2
I61
sS'ahat_model'
p3
I0
sS'm9095'
p4
F6.250115050874326
sS'decision_confidence'
p5
(lp6
F6.250115050874326
aF6.322583259848268
aF6.39393212155106
aF6.464211276020097
aF6.533466981413665
aF6.601742422832085
aF6.66907798586086
aF6.7355114996262895
aF6.801078453405909
aF6.865812190219574
aF7.238354098303872
aF7.357101850019632
aF7.473424457155341
aF7.587471122032674
aF7.6993770204385665
aF7.80926501045288
aF7.917247083643191
aF8.02342560487226
aF8.127894377469056
aF8.230739563189266
aF8.579003297867233
aF8.675440471289697
aF8.77062241109064
aF8.86460120315388
aF8.957425368294306
aF9.049140176199757
aF9.139787926475748
aF9.229408200879266
aF9.318038090226072
aF9.405712398956764
aF9.705502382502948
aF9.913395125599939
aF10.116519352761676
aF10.315204922704433
aF10.509742254130161
aF10.700388745461876
aF10.887373960950345
aF11.07090384413239
aF11.251164160142418
aF11.42832332366598
aF11.602534735262328
aF11.773938722573675
aF11.942664162622458
aF12.108829845564696
aF12.272545627879051
aF12.433913413248487
aF12.59302799174075
aF12.749977761859977
aF12.904845355271764
aF13.057708180223674
aF13.208638896679686
aF13.504973358431275
aF13.794349750983185
aF14.077215322990492
aF14.353971515269563
aF14.624980398334984
aF14.89056994875899
aF15.151038421764952
aF15.40665801003695
aF15.657677931393238
aF15.904327054143362
aF16.14681614435078
aF16.385339801043713
aF16.620078131774743
aF16.851198210547835
aF17.078855352128567
aF17.303194230510694
aF17.524349864391418
aF17.742448488590643
aF17.957608327203626
aF18.16994028173062
asS'bcount'
p7
I23
sS'crkmin'
p8
F2.2
sS'flaw_column'
p9
I0
sS'confidence_level'
p10
F0.95
sS'podfile'
p11
NsS'signalmin'
p12
I35
sS'titles'
p13
(lp14
S'A21'
p15
aS'A11'
p16
aS'A12'
p17
asS'decision_thresholds'
p18
(lp19
I35
aI50
aI75
aI100
aI150
aI200
aI300
aI400
asS'muhat'
p20
F2.735789443483415
sS'xmin'
p21
F2.2
sS'diff'
p22
(lp23
sS'info_count'
p24
I0
sS'ahat_transform'
p25
I2
sS'res_sums'
p26
(lp27
F1.82240496412593e-13
aF-7.674398053962545e-14
aF-7.042618309334442e-14
asS'data_units'
p28
S''
p29
sS'pod_level'
p30
F0.9
sS'pfdata'
p31
(lp32
sS'pod_crksize'
p33
(lp34
F4.3482385568323965
aF4.378495549059885
aF4.408752541287374
aF4.439009533514863
aF4.469266525742351
aF4.499523517969839
aF4.5297805101973285
aF4.560037502424818
aF4.590294494652306
aF4.620551486879794
aF4.650808479107283
aF4.681065471334772
aF4.711322463562261
aF4.741579455789749
aF4.771836448017238
aF4.802093440244727
aF4.832350432472215
aF4.8626074246997035
aF4.892864416927193
aF4.923121409154682
aF4.95337840138217
aF4.983635393609658
aF5.013892385837147
aF5.0441493780646365
aF5.074406370292125
aF5.104663362519613
aF5.134920354747102
aF5.165177346974591
aF5.195434339202079
aF5.225691331429568
aF5.255948323657057
aF5.286205315884546
aF5.316462308112034
aF5.346719300339522
aF5.3769762925670115
aF5.407233284794501
aF5.437490277021989
aF5.467747269249477
aF5.498004261476966
aF5.528261253704455
aF5.5585182459319435
aF5.588775238159432
aF5.619032230386921
aF5.64928922261441
aF5.679546214841898
aF5.7098032070693865
aF5.740060199296876
aF5.770317191524365
aF5.800574183751853
aF5.830831175979341
aF5.86108816820683
aF5.891345160434319
aF5.921602152661808
aF5.951859144889296
aF5.982116137116785
aF6.012373129344274
aF6.042630121571762
aF6.072887113799251
aF6.10314410602674
aF6.133401098254229
aF6.163658090481717
aF6.193915082709205
aF6.224172074936694
aF6.254429067164184
aF6.284686059391672
aF6.31494305161916
aF6.345200043846649
aF6.375457036074138
aF6.4057140283016265
aF6.435971020529115
aF6.466228012756604
aF6.496485004984093
aF6.526741997211581
aF6.5569989894390694
aF6.587255981666559
asS'flaws'
p35
(lp36
(i__main__
CrackData
p37
(dp38
S'count'
p39
I3
sS'crksize'
p40
F2.2
sS'ssy'
p41
I0
sS'rmax'
p42
F8.31752199628717
sg2
I0
sS'crkf'
p43
F0.7884573603642703
sS'yfit_inv'
p44
F4.52230877833899
sS'a_transform'
p45
I2
sS'nsets'
p46
I3
sS'rmin'
p47
F3.5553480614894135
sS'censored'
p48
I01
sS'scnt'
p49
I0
sS'ncensor'
p50
I2
sS'above'
p51
I0
sS'rdata'
p52
(lp53
(i__main__
CInspection
p54
(dp55
S'flag'
p56
I2
sS'IsIncluded'
p57
I01
sS'value'
p58
F35.0
sba(i__main__
CInspection
p59
(dp60
g56
I2
sg57
I01
sg58
F35.0
sba(i__main__
CInspection
p61
(dp62
g56
I2
sg57
I01
sg58
F35.0
sbasS'ybar'
p63
F3.5553480614894135
sS'dstar'
p64
F0.0
sS'yfit'
p65
F1.5090226551024002
sg25
I2
sS'ybar_inv'
p66
I35
sS'sw'
p67
F0.0
sba(i__main__
CrackData
p68
(dp69
g39
I3
sg40
F2.4
sg41
I0
sg42
F8.31752199628717
sg2
I0
sg43
F0.8754687373538999
sg44
F5.525140628147563
sg45
I2
sg46
I3
sg47
F3.5553480614894135
sg48
I01
sg49
I0
sg50
I2
sg51
I0
sg52
(lp70
(i__main__
CInspection
p71
(dp72
g56
I2
sg57
I01
sg58
F35.0
sba(i__main__
CInspection
p73
(dp74
g56
I2
sg57
I01
sg58
F35.0
sba(i__main__
CInspection
p75
(dp76
g56
I2
sg57
I01
sg58
F35.0
sbasg63
F3.5553480614894135
sg64
F0.0
sg65
F1.7093087001382754
sg25
I2
sg66
I35
sg67
F0.0
sba(i__main__
CrackData
p77
(dp78
g39
I3
sg40
F2.4
sg41
I0
sg42
F8.31752199628717
sg2
I0
sg43
F0.8754687373538999
sg44
F5.525140628147563
sg45
I2
sg46
I3
sg47
F3.5553480614894135
sg48
I01
sg49
I0
sg50
I2
sg51
I0
sg52
(lp79
(i__main__
CInspection
p80
(dp81
g56
I2
sg57
I01
sg58
F35.0
sba(i__main__
CInspection
p82
(dp83
g56
I2
sg57
I01
sg58
F35.0
sba(i__main__
CInspection
p84
(dp85
g56
I2
sg57
I01
sg58
F35.0
sbasg63
F3.5553480614894135
sg64
F0.0
sg65
F1.7093087001382754
sg25
I2
sg66
I35
sg67
F0.0
sba(i__main__
CrackData
p86
(dp87
g39
I3
sg40
F2.7
sg41
I0
sg42
F8.31752199628717
sg2
I0
sg43
F0.9932517730102834
sg44
F7.245829783545314
sg45
I2
sg46
I3
sg47
F3.5553480614894135
sg48
I01
sg49
I0
sg50
I2
sg51
I0
sg52
(lp88
(i__main__
CInspection
p89
(dp90
g56
I2
sg57
I01
sg58
F35.0
sba(i__main__
CInspection
p91
(dp92
g56
I2
sg57
I01
sg58
F35.0
sba(i__main__
CInspection
p93
(dp94
g56
I2
sg57
I01
sg58
F35.0
sbasg63
F3.5553480614894135
sg64
F0.0
sg65
F1.980426101104682
sg25
I2
sg66
I35
sg67
F0.0
sba(i__main__
CrackData
p95
(dp96
g39
I3
sg40
F2.9
sg41
I0
sg42
F8.31752199628717
sg2
I0
sg43
F1.0647107369924282
sg44
F8.5412982797649
sg45
I2
sg46
I3
sg47
F3.5553480614894135
sg48
I01
sg49
I0
sg50
I2
sg51
I0
sg52
(lp97
(i__main__
CInspection
p98
(dp99
g56
I2
sg57
I01
sg58
F35.0
sba(i__main__
CInspection
p100
(dp101
g56
I2
sg57
I01
sg58
F35.0
sba(i__main__
CInspection
p102
(dp103
g56
I2
sg57
I01
sg58
F35.0
sbasg63
F3.5553480614894135
sg64
F0.0
sg65
F2.144913019637768
sg25
I2
sg66
I35
sg67
F0.0
sba(i__main__
CrackData
p104
(dp105
g39
I3
sg40
F2.9
sg41
I0
sg42
F8.31752199628717
sg2
I0
sg43
F1.0647107369924282
sg44
F8.5412982797649
sg45
I2
sg46
I3
sg47
F3.5553480614894135
sg48
I01
sg49
I0
sg50
I2
sg51
I0
sg52
(lp106
(i__main__
CInspection
p107
(dp108
g56
I2
sg57
I01
sg58
F35.0
sba(i__main__
CInspection
p109
(dp110
g56
I2
sg57
I01
sg58
F35.0
sba(i__main__
CInspection
p111
(dp112
g56
I2
sg57
I01
sg58
F35.0
sbasg63
F3.5553480614894135
sg64
F0.0
sg65
F2.144913019637768
sg25
I2
sg66
I35
sg67
F0.0
sba(i__main__
CrackData
p113
(dp114
g39
I3
sg40
F2.9
sg41
I0
sg42
F8.31752199628717
sg2
I0
sg43
F1.0647107369924282
sg44
F8.5412982797649
sg45
I2
sg46
I3
sg47
F3.5553480614894135
sg48
I01
sg49
I0
sg50
I2
sg51
I0
sg52
(lp115
(i__main__
CInspection
p116
(dp117
g56
I2
sg57
I01
sg58
F35.0
sba(i__main__
CInspection
p118
(dp119
g56
I2
sg57
I01
sg58
F35.0
sba(i__main__
CInspection
p120
(dp121
g56
I2
sg57
I01
sg58
F35.0
sbasg63
F3.5553480614894135
sg64
F0.0
sg65
F2.144913019637768
sg25
I2
sg66
I35
sg67
F0.0
sba(i__main__
CrackData
p122
(dp123
g39
I3
sg40
F2.9
sg41
I0
sg42
F8.31752199628717
sg2
I0
sg43
F1.0647107369924282
sg44
F8.5412982797649
sg45
I2
sg46
I3
sg47
F3.5553480614894135
sg48
I01
sg49
I0
sg50
I2
sg51
I0
sg52
(lp124
(i__main__
CInspection
p125
(dp126
g56
I2
sg57
I01
sg58
F35.0
sba(i__main__
CInspection
p127
(dp128
g56
I2
sg57
I01
sg58
F35.0
sba(i__main__
CInspection
p129
(dp130
g56
I2
sg57
I01
sg58
F35.0
sbasg63
F3.5553480614894135
sg64
F0.0
sg65
F2.144913019637768
sg25
I2
sg66
I35
sg67
F0.0
sba(i__main__
CrackData
p131
(dp132
g39
I3
sg40
F3.1
sg41
I0
sg42
F8.31752199628717
sg2
I0
sg43
F1.1314021114911006
sg44
F9.958492674195275
sg45
I2
sg46
I3
sg47
F3.5553480614894135
sg48
I01
sg49
I0
sg50
I2
sg51
I0
sg52
(lp133
(i__main__
CInspection
p134
(dp135
g56
I2
sg57
I01
sg58
F35.0
sba(i__main__
CInspection
p136
(dp137
g56
I2
sg57
I01
sg58
F35.0
sba(i__main__
CInspection
p138
(dp139
g56
I2
sg57
I01
sg58
F35.0
sbasg63
F3.5553480614894135
sg64
F0.0
sg65
F2.298425722211565
sg25
I2
sg66
I35
sg67
F0.0
sba(i__main__
CrackData
p140
(dp141
g39
I3
sg40
F3.3
sg41
I0
sg42
F8.31752199628717
sg2
I0
sg43
F1.1939224684724346
sg44
F11.499889429671791
sg45
I2
sg46
I3
sg47
F3.5553480614894135
sg48
I01
sg49
I0
sg50
I2
sg51
I0
sg52
(lp142
(i__main__
CInspection
p143
(dp144
g56
I2
sg57
I01
sg58
F35.0
sba(i__main__
CInspection
p145
(dp146
g56
I2
sg57
I01
sg58
F35.0
sba(i__main__
CInspection
p147
(dp148
g56
I2
sg57
I01
sg58
F35.0
sbasg63
F3.5553480614894135
sg64
F0.0
sg65
F2.442337420511833
sg25
I2
sg66
I35
sg67
F0.0
sba(i__main__
CrackData
p149
(dp150
g39
I3
sg40
F3.3
sg41
I0
sg42
F8.31752199628717
sg2
I0
sg43
F1.1939224684724346
sg44
F11.499889429671791
sg45
I2
sg46
I3
sg47
F3.5553480614894135
sg48
I01
sg49
I0
sg50
I2
sg51
I0
sg52
(lp151
(i__main__
CInspection
p152
(dp153
g56
I2
sg57
I01
sg58
F35.0
sba(i__main__
CInspection
p154
(dp155
g56
I2
sg57
I01
sg58
F35.0
sba(i__main__
CInspection
p156
(dp157
g56
I2
sg57
I01
sg58
F35.0
sbasg63
F3.5553480614894135
sg64
F0.0
sg65
F2.442337420511833
sg25
I2
sg66
I35
sg67
F0.0
sba(i__main__
CrackData
p158
(dp159
g39
I3
sg40
F3.3
sg41
I0
sg42
F8.31752199628717
sg2
I0
sg43
F1.1939224684724346
sg44
F11.499889429671791
sg45
I2
sg46
I3
sg47
F3.5553480614894135
sg48
I01
sg49
I0
sg50
I2
sg51
I0
sg52
(lp160
(i__main__
CInspection
p161
(dp162
g56
I2
sg57
I01
sg58
F35.0
sba(i__main__
CInspection
p163
(dp164
g56
I2
sg57
I01
sg58
F35.0
sba(i__main__
CInspection
p165
(dp166
g56
I2
sg57
I01
sg58
F35.0
sbasg63
F3.5553480614894135
sg64
F0.0
sg65
F2.442337420511833
sg25
I2
sg66
I35
sg67
F0.0
sba(i__main__
CrackData
p167
(dp168
g39
I3
sg40
F3.5
sg41
I0
sg42
F8.31752199628717
sg2
I0
sg43
F1.252762968495368
sg44
F13.167855710668713
sg45
I2
sg46
I3
sg47
F3.5553480614894135
sg48
I01
sg49
I0
sg50
I2
sg51
I0
sg52
(lp169
(i__main__
CInspection
p170
(dp171
g56
I2
sg57
I01
sg58
F35.0
sba(i__main__
CInspection
p172
(dp173
g56
I2
sg57
I01
sg58
F35.0
sba(i__main__
CInspection
p174
(dp175
g56
I2
sg57
I01
sg58
F35.0
sbasg63
F3.5553480614894135
sg64
F0.0
sg65
F2.577778686300918
sg25
I2
sg66
I35
sg67
F0.0
sba(i__main__
CrackData
p176
(dp177
g39
I3
sg40
F3.7
sg41
I0
sg42
F8.31752199628717
sg2
I0
sg43
F1.308332819650179
sg44
F14.96466042968628
sg45
I2
sg46
I3
sg47
F3.5553480614894135
sg48
I01
sg49
I0
sg50
I2
sg51
I0
sg52
(lp178
(i__main__
CInspection
p179
(dp180
g56
I2
sg57
I01
sg58
F35.0
sba(i__main__
CInspection
p181
(dp182
g56
I2
sg57
I01
sg58
F35.0
sba(i__main__
CInspection
p183
(dp184
g56
I2
sg57
I01
sg58
F35.0
sbasg63
F3.5553480614894135
sg64
F0.0
sg65
F2.705691450080715
sg25
I2
sg66
I35
sg67
F0.0
sba(i__main__
CrackData
p185
(dp186
g39
I3
sg40
F4.6
sg41
I0
sg42
F8.31752199628717
sg2
I0
sg43
F1.5260563034950492
sg44
F24.701291166116704
sg45
I2
sg46
I3
sg47
F3.5553480614894135
sg48
I01
sg49
I0
sg50
I2
sg51
I0
sg52
(lp187
(i__main__
CInspection
p188
(dp189
g56
I2
sg57
I01
sg58
F35.0
sba(i__main__
CInspection
p190
(dp191
g56
I2
sg57
I01
sg58
F35.0
sba(i__main__
CInspection
p192
(dp193
g56
I2
sg57
I01
sg58
F35.0
sbasg63
F3.5553480614894135
sg64
F0.0
sg65
F3.2068555161995476
sg25
I2
sg66
I35
sg67
F0.0
sba(i__main__
CrackData
p194
(dp195
g39
I3
sg40
F4.6
sg41
I0
sg42
F8.31752199628717
sg2
I0
sg43
F1.5260563034950492
sg44
F24.701291166116704
sg45
I2
sg46
I3
sg47
F3.5553480614894135
sg48
I01
sg49
I0
sg50
I2
sg51
I0
sg52
(lp196
(i__main__
CInspection
p197
(dp198
g56
I2
sg57
I01
sg58
F35.0
sba(i__main__
CInspection
p199
(dp200
g56
I2
sg57
I01
sg58
F35.0
sba(i__main__
CInspection
p201
(dp202
g56
I2
sg57
I01
sg58
F35.0
sbasg63
F3.5553480614894135
sg64
F0.0
sg65
F3.2068555161995476
sg25
I2
sg66
I35
sg67
F0.0
sba(i__main__
CrackData
p203
(dp204
g39
I3
sg40
F5.1
sg41
I0
sg42
F8.31752199628717
sg2
I0
sg43
F1.62924053973028
sg44
F31.323507503771662
sg45
I2
sg46
I3
sg47
F3.5553480614894135
sg48
I01
sg49
I0
sg50
I2
sg51
I0
sg52
(lp205
(i__main__
CInspection
p206
(dp207
g56
I2
sg57
I01
sg58
F35.0
sba(i__main__
CInspection
p208
(dp209
g56
I2
sg57
I01
sg58
F35.0
sba(i__main__
CInspection
p210
(dp211
g56
I2
sg57
I01
sg58
F35.0
sbasg63
F3.5553480614894135
sg64
F0.0
sg65
F3.444368854117013
sg25
I2
sg66
I35
sg67
F0.0
sba(i__main__
CrackData
p212
(dp213
g39
I3
sg40
F5.1
sg41
I0
sg42
F8.31752199628717
sg2
I0
sg43
F1.62924053973028
sg44
F31.323507503771662
sg45
I2
sg46
I3
sg47
F3.5553480614894135
sg48
I01
sg49
I0
sg50
I2
sg51
I0
sg52
(lp214
(i__main__
CInspection
p215
(dp216
g56
I2
sg57
I01
sg58
F35.0
sba(i__main__
CInspection
p217
(dp218
g56
I2
sg57
I01
sg58
F35.0
sba(i__main__
CInspection
p219
(dp220
g56
I2
sg57
I01
sg58
F35.0
sbasg63
F3.5553480614894135
sg64
F0.0
sg65
F3.444368854117013
sg25
I2
sg66
I35
sg67
F0.0
sba(i__main__
CrackData
p221
(dp222
g39
I3
sg40
F5.1
sg41
I0
sg42
F8.31752199628717
sg2
I0
sg43
F1.62924053973028
sg44
F31.323507503771662
sg45
I2
sg46
I3
sg47
F3.5553480614894135
sg48
I01
sg49
I0
sg50
I2
sg51
I0
sg52
(lp223
(i__main__
CInspection
p224
(dp225
g56
I2
sg57
I01
sg58
F35.0
sba(i__main__
CInspection
p226
(dp227
g56
I2
sg57
I01
sg58
F35.0
sba(i__main__
CInspection
p228
(dp229
g56
I2
sg57
I01
sg58
F35.0
sbasg63
F3.5553480614894135
sg64
F0.0
sg65
F3.444368854117013
sg25
I2
sg66
I35
sg67
F0.0
sba(i__main__
CrackData
p230
(dp231
g39
I3
sg40
F5.5
sg41
I0
sg42
F8.31752199628717
sg2
I0
sg43
F1.7047480922384253
sg44
F37.26948760798802
sg45
I2
sg46
I3
sg47
F3.5553480614894135
sg48
I01
sg49
I0
sg50
I2
sg51
I0
sg52
(lp232
(i__main__
CInspection
p233
(dp234
g56
I2
sg57
I01
sg58
F35.0
sba(i__main__
CInspection
p235
(dp236
g56
I2
sg57
I01
sg58
F35.0
sba(i__main__
CInspection
p237
(dp238
g56
I2
sg57
I01
sg58
F35.0
sbasg63
F3.5553480614894135
sg64
F0.0
sg65
F3.6181749652879414
sg25
I2
sg66
I35
sg67
F0.0
sba(i__main__
CrackData
p239
(dp240
g39
I3
sg40
F5.5
sg41
I0
sg42
F8.31752199628717
sg2
I0
sg43
F1.7047480922384253
sg44
F37.26948760798802
sg45
I2
sg46
I3
sg47
F3.5553480614894135
sg48
I01
sg49
I0
sg50
I2
sg51
I0
sg52
(lp241
(i__main__
CInspection
p242
(dp243
g56
I2
sg57
I01
sg58
F35.0
sba(i__main__
CInspection
p244
(dp245
g56
I2
sg57
I01
sg58
F35.0
sba(i__main__
CInspection
p246
(dp247
g56
I2
sg57
I01
sg58
F35.0
sbasg63
F3.5553480614894135
sg64
F0.0
sg65
F3.6181749652879414
sg25
I2
sg66
I35
sg67
F0.0
sba(i__main__
CrackData
p248
(dp249
g39
I3
sg40
F4.6
sg41
I0
sg42
F8.31752199628717
sg2
I0
sg43
F1.5260563034950492
sg44
F24.701291166116704
sg45
I2
sg46
I3
sg47
F3.5553480614894135
sg48
I01
sg49
I0
sg50
I2
sg51
I0
sg52
(lp250
(i__main__
CInspection
p251
(dp252
g56
I2
sg57
I01
sg58
F35.0
sba(i__main__
CInspection
p253
(dp254
g56
I2
sg57
I01
sg58
F35.0
sba(i__main__
CInspection
p255
(dp256
g56
I2
sg57
I01
sg58
F35.0
sbasg63
F3.5553480614894135
sg64
F0.0
sg65
F3.2068555161995476
sg25
I2
sg66
I35
sg67
F0.0
sba(i__main__
CrackData
p257
(dp258
g39
I3
sg40
F5.9
sg41
F0.0025772148819882545
sg42
F8.31752199628717
sg2
I0
sg43
F1.7749523509116738
sg44
I0
sg45
I2
sg46
I3
sg47
F3.5553480614894135
sg48
I00
sg49
F2.0
sg50
I0
sg51
I0
sg52
(lp259
(i__main__
CInspection
p260
(dp261
g56
I0
sg57
I01
sg58
F42.0
sba(i__main__
CInspection
p262
(dp263
g56
I0
sg57
I01
sg58
F41.0
sba(i__main__
CInspection
p264
(dp265
g56
I0
sg57
I01
sg58
F44.0
sbasg63
F3.745143772968646
sg64
F0.0
sg65
I0
sg25
I2
sg66
F42.31509054770478
sg67
F0.0
sba(i__main__
CrackData
p266
(dp267
g39
I3
sg40
F5.9
sg41
F0.0
sg42
F8.31752199628717
sg2
I0
sg43
F1.7749523509116738
sg44
I0
sg45
I2
sg46
I3
sg47
F3.5553480614894135
sg48
I00
sg49
F0.0
sg50
I4
sg51
I0
sg52
(lp268
(i__main__
CInspection
p269
(dp270
g56
I0
sg57
I01
sg58
F41.0
sba(i__main__
CInspection
p271
(dp272
g56
I2
sg57
I01
sg58
F35.0
sba(i__main__
CInspection
p273
(dp274
g56
I0
sg57
I01
sg58
F39.0
sbasg63
F3.688566856416977
sg64
F0.0
sg65
I0
sg25
I2
sg66
F39.98749804626441
sg67
F0.0
sba(i__main__
CrackData
p275
(dp276
g39
I3
sg40
F5.5
sg41
I0
sg42
F8.31752199628717
sg2
I0
sg43
F1.7047480922384253
sg44
F37.26948760798802
sg45
I2
sg46
I3
sg47
F3.5553480614894135
sg48
I01
sg49
I0
sg50
I2
sg51
I0
sg52
(lp277
(i__main__
CInspection
p278
(dp279
g56
I2
sg57
I01
sg58
F35.0
sba(i__main__
CInspection
p280
(dp281
g56
I2
sg57
I01
sg58
F35.0
sba(i__main__
CInspection
p282
(dp283
g56
I2
sg57
I01
sg58
F35.0
sbasg63
F3.5553480614894135
sg64
F0.0
sg65
F3.6181749652879414
sg25
I2
sg66
I35
sg67
F0.0
sba(i__main__
CrackData
p284
(dp285
g39
I3
sg40
F6.4
sg41
F0.003571335193733205
sg42
F8.31752199628717
sg2
I0
sg43
F1.8562979903656263
sg44
I0
sg45
I2
sg46
I3
sg47
F3.5553480614894135
sg48
I00
sg49
F2.0
sg50
I0
sg51
I0
sg52
(lp286
(i__main__
CInspection
p287
(dp288
g56
I0
sg57
I01
sg58
F65.0
sba(i__main__
CInspection
p289
(dp290
g56
I0
sg57
I01
sg58
F60.0
sba(i__main__
CInspection
p291
(dp292
g56
I0
sg57
I01
sg58
F61.0
sbasg63
F4.126535232097016
sg64
F0.0
sg65
I0
sg25
I2
sg66
F61.962863643508996
sg67
F0.0
sba(i__main__
CrackData
p293
(dp294
g39
I3
sg40
F6.4
sg41
F0.003978093237670066
sg42
F8.31752199628717
sg2
I0
sg43
F1.8562979903656263
sg44
I0
sg45
I2
sg46
I3
sg47
F3.5553480614894135
sg48
I00
sg49
F2.0
sg50
I0
sg51
I0
sg52
(lp295
(i__main__
CInspection
p296
(dp297
g56
I0
sg57
I01
sg58
F62.0
sba(i__main__
CInspection
p298
(dp299
g56
I0
sg57
I01
sg58
F57.0
sba(i__main__
CInspection
p300
(dp301
g56
I0
sg57
I01
sg58
F61.0
sbasg63
F4.0936865056843175
sg64
F0.0
sg65
I0
sg25
I2
sg66
F59.96052959603605
sg67
F0.0
sba(i__main__
CrackData
p302
(dp303
g39
I3
sg40
F6.8
sg41
F0.002281675351717638
sg42
F8.31752199628717
sg2
I0
sg43
F1.916922612182061
sg44
I0
sg45
I2
sg46
I3
sg47
F3.5553480614894135
sg48
I00
sg49
F2.0
sg50
I0
sg51
I0
sg52
(lp304
(i__main__
CInspection
p305
(dp306
g56
I0
sg57
I01
sg58
F80.0
sba(i__main__
CInspection
p307
(dp308
g56
I0
sg57
I01
sg58
F76.0
sba(i__main__
CInspection
p309
(dp310
g56
I0
sg57
I01
sg58
F81.0
sbasg63
F4.36906970987755
sg64
F0.0
sg65
I0
sg25
I2
sg66
F78.97013238289671
sg67
F0.0
sba(i__main__
CrackData
p311
(dp312
g39
I3
sg40
F6.8
sg41
F0.0
sg42
F8.31752199628717
sg2
I0
sg43
F1.916922612182061
sg44
I0
sg45
I2
sg46
I3
sg47
F3.5553480614894135
sg48
I00
sg49
F2.0
sg50
I0
sg51
I0
sg52
(lp313
(i__main__
CInspection
p314
(dp315
g56
I0
sg57
I01
sg58
F55.0
sba(i__main__
CInspection
p316
(dp317
g56
I0
sg57
I01
sg58
F55.0
sba(i__main__
CInspection
p318
(dp319
g56
I0
sg57
I01
sg58
F55.0
sbasg63
F4.007333185232471
sg64
F0.0
sg65
I0
sg25
I2
sg66
F55.000000000000014
sg67
F0.0
sba(i__main__
CrackData
p320
(dp321
g39
I3
sg40
F7.3
sg41
F0.0014786655623879597
sg42
F8.31752199628717
sg2
I0
sg43
F1.9878743481543455
sg44
I0
sg45
I2
sg46
I3
sg47
F3.5553480614894135
sg48
I00
sg49
F2.0
sg50
I0
sg51
I0
sg52
(lp322
(i__main__
CInspection
p323
(dp324
g56
I0
sg57
I01
sg58
F95.0
sba(i__main__
CInspection
p325
(dp326
g56
I0
sg57
I01
sg58
F90.0
sba(i__main__
CInspection
p327
(dp328
g56
I0
sg57
I01
sg58
F92.0
sbasg63
F4.525158379659949
sg64
F0.0
sg65
I0
sg25
I2
sg66
F92.31054478364729
sg67
F0.0
sba(i__main__
CrackData
p329
(dp330
g39
I3
sg40
F7.3
sg41
F0.0006122761386819775
sg42
F8.31752199628717
sg2
I0
sg43
F1.9878743481543455
sg44
I0
sg45
I2
sg46
I3
sg47
F3.5553480614894135
sg48
I00
sg49
F2.0
sg50
I0
sg51
I0
sg52
(lp331
(i__main__
CInspection
p332
(dp333
g56
I0
sg57
I01
sg58
F67.0
sba(i__main__
CInspection
p334
(dp335
g56
I0
sg57
I01
sg58
F65.0
sba(i__main__
CInspection
p336
(dp337
g56
I0
sg57
I01
sg58
F65.0
sbasg63
F4.184489053060747
sg64
F0.0
sg65
I0
sg25
I2
sg66
F65.65994359725038
sg67
F0.0
sba(i__main__
CrackData
p338
(dp339
g39
I3
sg40
F7.7
sg41
F0.0004273276007467075
sg42
F8.31752199628717
sg2
I0
sg43
F2.0412203288596382
sg44
I0
sg45
I2
sg46
I3
sg47
F3.5553480614894135
sg48
I00
sg49
F2.0
sg50
I0
sg51
I0
sg52
(lp340
(i__main__
CInspection
p341
(dp342
g56
I0
sg57
I01
sg58
F78.0
sba(i__main__
CInspection
p343
(dp344
g56
I0
sg57
I01
sg58
F78.0
sba(i__main__
CInspection
p345
(dp346
g56
I0
sg57
I01
sg58
F80.0
sbasg63
F4.3651480960176885
sg64
F0.0
sg65
I0
sg25
I2
sg66
F78.66104846723071
sg67
F0.0
sba(i__main__
CrackData
p347
(dp348
g39
I3
sg40
F7.7
sg41
F0.021226201530076594
sg42
F8.31752199628717
sg2
I0
sg43
F2.0412203288596382
sg44
I0
sg45
I2
sg46
I3
sg47
F3.5553480614894135
sg48
I00
sg49
F2.0
sg50
I0
sg51
I0
sg52
(lp349
(i__main__
CInspection
p350
(dp351
g56
I0
sg57
I01
sg58
F77.0
sba(i__main__
CInspection
p352
(dp353
g56
I0
sg57
I01
sg58
F70.0
sba(i__main__
CInspection
p354
(dp355
g56
I0
sg57
I01
sg58
F86.0
sbasg63
F4.348882653385517
sg64
F0.0
sg65
I0
sg25
I2
sg66
F77.39194097352252
sg67
F0.0
sba(i__main__
CrackData
p356
(dp357
g39
I3
sg40
F8.1
sg41
F0.003147254211263828
sg42
F8.31752199628717
sg2
I0
sg43
F2.0918640616783932
sg44
I0
sg45
I2
sg46
I3
sg47
F3.5553480614894135
sg48
I00
sg49
F2.0
sg50
I0
sg51
I0
sg52
(lp358
(i__main__
CInspection
p359
(dp360
g56
I0
sg57
I01
sg58
F92.0
sba(i__main__
CInspection
p361
(dp362
g56
I0
sg57
I01
sg58
F85.0
sba(i__main__
CInspection
p363
(dp364
g56
I0
sg57
I01
sg58
F88.0
sbasg63
F4.480592216005855
sg64
F0.0
sg65
I0
sg25
I2
sg66
F88.28694213695948
sg67
F0.0
sba(i__main__
CrackData
p365
(dp366
g39
I3
sg40
F8.6
sg41
F0.007562169474681468
sg42
F8.31752199628717
sg2
I0
sg43
F2.151762203259462
sg44
I0
sg45
I2
sg46
I3
sg47
F3.5553480614894135
sg48
I00
sg49
F2.0
sg50
I0
sg51
I0
sg52
(lp367
(i__main__
CInspection
p368
(dp369
g56
I0
sg57
I01
sg58
F121.0
sba(i__main__
CInspection
p370
(dp371
g56
I0
sg57
I01
sg58
F107.0
sba(i__main__
CInspection
p372
(dp373
g56
I0
sg57
I01
sg58
F114.0
sbasg63
F4.7349392761510485
sg64
F0.0
sg65
I0
sg25
I2
sg66
F113.8565447006668
sg67
F0.0
sba(i__main__
CrackData
p374
(dp375
g39
I3
sg40
F9.0
sg41
F0.0007873960961291004
sg42
F8.31752199628717
sg2
I0
sg43
F2.1972245773362196
sg44
I0
sg45
I2
sg46
I3
sg47
F3.5553480614894135
sg48
I00
sg49
F2.0
sg50
I0
sg51
I0
sg52
(lp376
(i__main__
CInspection
p377
(dp378
g56
I0
sg57
I01
sg58
F136.0
sba(i__main__
CInspection
p379
(dp380
g56
I0
sg57
I01
sg58
F131.0
sba(i__main__
CInspection
p381
(dp382
g56
I0
sg57
I01
sg58
F135.0
sbasg63
F4.897708995791877
sg64
F0.0
sg65
I0
sg25
I2
sg66
F133.9824733889912
sg67
F0.0
sba(i__main__
CrackData
p383
(dp384
g39
I3
sg40
F9.0
sg41
F5.267559079413786e-05
sg42
F8.31752199628717
sg2
I0
sg43
F2.1972245773362196
sg44
I0
sg45
I2
sg46
I3
sg47
F3.5553480614894135
sg48
I00
sg49
F2.0
sg50
I0
sg51
I0
sg52
(lp385
(i__main__
CInspection
p386
(dp387
g56
I0
sg57
I01
sg58
F112.0
sba(i__main__
CInspection
p388
(dp389
g56
I0
sg57
I01
sg58
F113.0
sba(i__main__
CInspection
p390
(dp391
g56
I0
sg57
I01
sg58
F113.0
sbasg63
F4.724424836239925
sg64
F0.0
sg65
I0
sg25
I2
sg66
F112.6656785195518
sg67
F0.0
sba(i__main__
CrackData
p392
(dp393
g39
I3
sg40
F8.8
sg41
F0.0006232313553766744
sg42
F8.31752199628717
sg2
I0
sg43
F2.174751721484161
sg44
I0
sg45
I2
sg46
I3
sg47
F3.5553480614894135
sg48
I00
sg49
F2.0
sg50
I0
sg51
I0
sg52
(lp394
(i__main__
CInspection
p395
(dp396
g56
I0
sg57
I01
sg58
F145.0
sba(i__main__
CInspection
p397
(dp398
g56
I0
sg57
I01
sg58
F140.0
sba(i__main__
CInspection
p399
(dp400
g56
I0
sg57
I01
sg58
F142.0
sbasg63
F4.958067740877046
sg64
F0.0
sg65
I0
sg25
I2
sg66
F142.3185337585234
sg67
F0.0
sba(i__main__
CrackData
p401
(dp402
g39
I3
sg40
F9.5
sg41
F5.362469416070326e-05
sg42
F8.31752199628717
sg2
I0
sg43
F2.2512917986064953
sg44
I0
sg45
I2
sg46
I3
sg47
F3.5553480614894135
sg48
I00
sg49
F2.0
sg50
I0
sg51
I0
sg52
(lp403
(i__main__
CInspection
p404
(dp405
g56
I0
sg57
I01
sg58
F112.0
sba(i__main__
CInspection
p406
(dp407
g56
I0
sg57
I01
sg58
F111.0
sba(i__main__
CInspection
p408
(dp409
g56
I0
sg57
I01
sg58
F111.0
sbasg63
F4.712519757973254
sg64
F0.0
sg65
I0
sg25
I2
sg66
F111.33233731245458
sg67
F0.0
sba(i__main__
CrackData
p410
(dp411
g39
I3
sg40
F9.9
sg41
F0.00016510700564253966
sg42
F8.31752199628717
sg2
I0
sg43
F2.2925347571405443
sg44
I0
sg45
I2
sg46
I3
sg47
F3.5553480614894135
sg48
I00
sg49
F2.0
sg50
I0
sg51
I0
sg52
(lp412
(i__main__
CInspection
p413
(dp414
g56
I0
sg57
I01
sg58
F231.0
sba(i__main__
CInspection
p415
(dp416
g56
I0
sg57
I01
sg58
F227.0
sba(i__main__
CInspection
p417
(dp418
g56
I0
sg57
I01
sg58
F228.0
sbasg63
F5.4322377856525454
sg64
F0.0
sg65
I0
sg25
I2
sg66
F228.66036620813733
sg67
F0.0
sba(i__main__
CrackData
p419
(dp420
g39
I3
sg40
F9.9
sg41
F0.0006719865630913091
sg42
F8.31752199628717
sg2
I0
sg43
F2.2925347571405443
sg44
I0
sg45
I2
sg46
I3
sg47
F3.5553480614894135
sg48
I00
sg49
F2.0
sg50
I0
sg51
I0
sg52
(lp421
(i__main__
CInspection
p422
(dp423
g56
I0
sg57
I01
sg58
F124.0
sba(i__main__
CInspection
p424
(dp425
g56
I0
sg57
I01
sg58
F128.0
sba(i__main__
CInspection
p426
(dp427
g56
I0
sg57
I01
sg58
F128.0
sbasg63
F4.841447364481424
sg64
F0.0
sg65
I0
sg25
I2
sg66
F126.65253150977304
sg67
F0.0
sba(i__main__
CrackData
p428
(dp429
g39
I3
sg40
F9.9
sg41
F0.0005964349830804849
sg42
F8.31752199628717
sg2
I0
sg43
F2.2925347571405443
sg44
I0
sg45
I2
sg46
I3
sg47
F3.5553480614894135
sg48
I00
sg49
F2.0
sg50
I0
sg51
I0
sg52
(lp430
(i__main__
CInspection
p431
(dp432
g56
I0
sg57
I01
sg58
F189.0
sba(i__main__
CInspection
p433
(dp434
g56
I0
sg57
I01
sg58
F183.0
sba(i__main__
CInspection
p435
(dp436
g56
I0
sg57
I01
sg58
F184.0
sbasg63
F5.22205630850335
sg64
F0.0
sg65
I0
sg25
I2
sg66
F185.3148570623664
sg67
F0.0
sba(i__main__
CrackData
p437
(dp438
g39
I3
sg40
F10.8
sg41
F0.0024486122953106815
sg42
F8.31752199628717
sg2
I0
sg43
F2.379546134130174
sg44
I0
sg45
I2
sg46
I3
sg47
F3.5553480614894135
sg48
I00
sg49
F2.0
sg50
I0
sg51
I0
sg52
(lp439
(i__main__
CInspection
p440
(dp441
g56
I0
sg57
I01
sg58
F230.0
sba(i__main__
CInspection
p442
(dp443
g56
I0
sg57
I01
sg58
F215.0
sba(i__main__
CInspection
p444
(dp445
g56
I0
sg57
I01
sg58
F226.0
sbasg63
F5.409750778774381
sg64
F0.0
sg65
I0
sg25
I2
sg66
F223.5758608866155
sg67
F0.0
sba(i__main__
CrackData
p446
(dp447
g39
I3
sg40
F11.2
sg41
F0.00013552034619124242
sg42
F8.31752199628717
sg2
I0
sg43
F2.4159137783010487
sg44
I0
sg45
I2
sg46
I3
sg47
F3.5553480614894135
sg48
I00
sg49
F2.0
sg50
I0
sg51
I0
sg52
(lp448
(i__main__
CInspection
p449
(dp450
g56
I0
sg57
I01
sg58
F187.0
sba(i__main__
CInspection
p451
(dp452
g56
I0
sg57
I01
sg58
F185.0
sba(i__main__
CInspection
p453
(dp454
g56
I0
sg57
I01
sg58
F184.0
sbasg63
F5.222133399847299
sg64
F0.0
sg65
I0
sg25
I2
sg66
F185.3291437844352
sg67
F0.0
sba(i__main__
CrackData
p455
(dp456
g39
I3
sg40
F11.7
sg41
F0.0002997450821169423
sg42
F8.31752199628717
sg2
I0
sg43
F2.4595888418037104
sg44
I0
sg45
I2
sg46
I3
sg47
F3.5553480614894135
sg48
I00
sg49
F2.0
sg50
I0
sg51
I0
sg52
(lp457
(i__main__
CInspection
p458
(dp459
g56
I0
sg57
I01
sg58
F205.0
sba(i__main__
CInspection
p460
(dp461
g56
I0
sg57
I01
sg58
F203.0
sba(i__main__
CInspection
p462
(dp463
g56
I0
sg57
I01
sg58
F208.0
sbasg63
F5.324584679293838
sg64
F0.0
sg65
I0
sg25
I2
sg66
F205.3230678325874
sg67
F0.0
sba(i__main__
CrackData
p464
(dp465
g39
I3
sg40
F11.7
sg41
F5.989772463976806e-05
sg42
F8.31752199628717
sg2
I0
sg43
F2.4595888418037104
sg44
I0
sg45
I2
sg46
I3
sg47
F3.5553480614894135
sg48
I00
sg49
F2.0
sg50
I0
sg51
I0
sg52
(lp466
(i__main__
CInspection
p467
(dp468
g56
I0
sg57
I01
sg58
F212.0
sba(i__main__
CInspection
p469
(dp470
g56
I0
sg57
I01
sg58
F210.0
sba(i__main__
CInspection
p471
(dp472
g56
I0
sg57
I01
sg58
F212.0
sbasg63
F5.353426693353831
sg64
F0.0
sg65
I0
sg25
I2
sg66
F211.33122584007813
sg67
F0.0
sba(i__main__
CrackData
p473
(dp474
g39
I3
sg40
F12.5
sg41
F1.5045484389020203e-05
sg42
F8.31752199628717
sg2
I0
sg43
F2.5257286443082556
sg44
I0
sg45
I2
sg46
I3
sg47
F3.5553480614894135
sg48
I00
sg49
F2.0
sg50
I0
sg51
I0
sg52
(lp475
(i__main__
CInspection
p476
(dp477
g56
I0
sg57
I01
sg58
F210.0
sba(i__main__
CInspection
p478
(dp479
g56
I0
sg57
I01
sg58
F210.0
sba(i__main__
CInspection
p480
(dp481
g56
I0
sg57
I01
sg58
F211.0
sbasg63
F5.3486910649703345
sg64
F0.0
sg65
I0
sg25
I2
sg66
F210.3328056281129
sg67
F0.0
sba(i__main__
CrackData
p482
(dp483
g39
I3
sg40
F12.1
sg41
F0.022733206327913535
sg42
F8.31752199628717
sg2
I0
sg43
F2.4932054526026954
sg44
I0
sg45
I2
sg46
I3
sg47
F3.5553480614894135
sg48
I00
sg49
F2.0
sg50
I0
sg51
I0
sg52
(lp484
(i__main__
CInspection
p485
(dp486
g56
I0
sg57
I01
sg58
F198.0
sba(i__main__
CInspection
p487
(dp488
g56
I0
sg57
I01
sg58
F233.0
sba(i__main__
CInspection
p489
(dp490
g56
I0
sg57
I01
sg58
F242.0
sbasg63
F5.409414403472307
sg64
F0.0
sg65
I0
sg25
I2
sg66
F223.50066813607444
sg67
F0.0
sba(i__main__
CrackData
p491
(dp492
g39
I3
sg40
F13.0
sg41
F0.0518645743094055
sg42
F8.31752199628717
sg2
I0
sg43
F2.5649493574615367
sg44
I0
sg45
I2
sg46
I3
sg47
F3.5553480614894135
sg48
I00
sg49
F2.0
sg50
I0
sg51
I0
sg52
(lp493
(i__main__
CInspection
p494
(dp495
g56
I0
sg57
I01
sg58
F230.0
sba(i__main__
CInspection
p496
(dp497
g56
I0
sg57
I01
sg58
F201.0
sba(i__main__
CInspection
p498
(dp499
g56
I0
sg57
I01
sg58
F277.0
sbasg63
F5.455133907723204
sg64
F0.0
sg65
I0
sg25
I2
sg66
F233.95619751373548
sg67
F0.0
sba(i__main__
CrackData
p500
(dp501
g39
I3
sg40
F13.4
sg41
F0.00486266624133691
sg42
F8.31752199628717
sg2
I0
sg43
F2.5952547069568657
sg44
I0
sg45
I2
sg46
I3
sg47
F3.5553480614894135
sg48
I00
sg49
F2.0
sg50
I0
sg51
I0
sg52
(lp502
(i__main__
CInspection
p503
(dp504
g56
I0
sg57
I01
sg58
F308.0
sba(i__main__
CInspection
p505
(dp506
g56
I0
sg57
I01
sg58
F286.0
sba(i__main__
CInspection
p507
(dp508
g56
I0
sg57
I01
sg58
F314.0
sbasg63
F5.711828193233894
sg64
F0.0
sg65
I0
sg25
I2
sg66
F302.42345170529893
sg67
F0.0
sba(i__main__
CrackData
p509
(dp510
g39
I3
sg40
F13.9
sg41
F0.000497038174344766
sg42
F8.31752199628717
sg2
I0
sg43
F2.631888840136646
sg44
I0
sg45
I2
sg46
I3
sg47
F3.5553480614894135
sg48
I00
sg49
F2.0
sg50
I0
sg51
I0
sg52
(lp511
(i__main__
CInspection
p512
(dp513
g56
I0
sg57
I01
sg58
F289.0
sba(i__main__
CInspection
p514
(dp515
g56
I0
sg57
I01
sg58
F286.0
sba(i__main__
CInspection
p516
(dp517
g56
I0
sg57
I01
sg58
F295.0
sbasg63
F5.669797951757368
sg64
F0.0
sg65
I0
sg25
I2
sg66
F289.9759393434709
sg67
F0.0
sba(i__main__
CrackData
p518
(dp519
g39
I3
sg40
F14.3
sg41
F0.0007540575228119906
sg42
F8.31752199628717
sg2
I0
sg43
F2.6602595372658615
sg44
I0
sg45
I2
sg46
I3
sg47
F3.5553480614894135
sg48
I00
sg49
F2.0
sg50
I0
sg51
I0
sg52
(lp520
(i__main__
CInspection
p521
(dp522
g56
I0
sg57
I01
sg58
F309.0
sba(i__main__
CInspection
p523
(dp524
g56
I0
sg57
I01
sg58
F321.0
sba(i__main__
CInspection
p525
(dp526
g56
I0
sg57
I01
sg58
F317.0
sbasg63
F5.754561391301681
sg64
F0.0
sg65
I0
sg25
I2
sg66
F315.62708037709893
sg67
F0.0
sba(i__main__
CrackData
p527
(dp528
g39
I3
sg40
F15.6
sg41
F0.008024807286531654
sg42
F8.31752199628717
sg2
I0
sg43
F2.747270914255491
sg44
I0
sg45
I2
sg46
I3
sg47
F3.5553480614894135
sg48
I00
sg49
F2.0
sg50
I0
sg51
I0
sg52
(lp529
(i__main__
CInspection
p530
(dp531
g56
I0
sg57
I01
sg58
F342.0
sba(i__main__
CInspection
p532
(dp533
g56
I0
sg57
I01
sg58
F385.0
sba(i__main__
CInspection
p534
(dp535
g56
I0
sg57
I01
sg58
F349.0
sbasg63
F5.8810419978509385
sg64
F0.0
sg65
I0
sg25
I2
sg66
F358.1822724846407
sg67
F0.0
sba(i__main__
CrackData
p536
(dp537
g39
I3
sg40
F16.1
sg41
F0.0017069613960671859
sg42
F8.31752199628717
sg2
I0
sg43
F2.7788192719904172
sg44
I0
sg45
I2
sg46
I3
sg47
F3.5553480614894135
sg48
I00
sg49
F2.0
sg50
I0
sg51
I0
sg52
(lp538
(i__main__
CInspection
p539
(dp540
g56
I0
sg57
I01
sg58
F376.0
sba(i__main__
CInspection
p541
(dp542
g56
I0
sg57
I01
sg58
F366.0
sba(i__main__
CInspection
p543
(dp544
g56
I0
sg57
I01
sg58
F388.0
sbasg63
F5.931075938804845
sg64
F0.0
sg65
I0
sg25
I2
sg66
F376.5594508674555
sg67
F0.0
sbasS'crkmax'
p545
F16.1
sS'decision_level'
p546
(lp547
F5.848426697150992
aF5.920442037962216
aF5.9913346656831274
aF6.0611517354881
aF6.129937241441595
aF6.19773230352782
aF6.264575422134882
aF6.3305027043832744
aF6.395548066006466
aF6.459743411928677
aF6.828636077549198
aF6.945985242302785
aF7.060808544159613
aF7.173250985953517
aF7.28344440978404
aF7.391509100598435
aF7.4975551478201945
aF7.60168360810851
aF7.703987503562123
aF7.804552682906023
aF8.143934465054159
aF8.23757979777831
aF8.32985934113189
aF8.420826853401174
aF8.51053271014895
aF8.599024192976138
aF8.686345747456322
aF8.772539214163615
aF8.857644036139222
aF8.94169744566201
aF9.228095881001883
aF9.425783991628375
aF9.61821657544272
aF9.805763116979666
aF9.988752352739343
aF10.16747826043141
aF10.342204965436913
aF10.513170794068278
aF10.680591647882421
aF10.844663832798371
aF11.005566446746123
aF11.163463407059597
aF11.31850518176398
aF11.470830275848563
aF11.620566513528177
aF11.767832149637341
aF11.912736837128465
aF12.055382472761169
aF12.19586393917755
aF12.33426975843539
aF12.470682669551048
aF12.737834823901924
aF12.997884753917388
aF13.25133177434703
aF13.498620133779951
aF13.740147108401416
aF13.976269632497186
aF14.207309775956025
aF14.433559304255768
aF14.655283501681918
aF14.872724397953345
aF15.08610350800462
aF15.295624171616588
aF15.501473561938713
aF15.703824418314102
aF15.902836548197554
aF16.098658134615246
aF16.29142687901398
aF16.481271004088413
aF16.66831013695408
aF16.85265608962838
asS'fcalc'
p548
F0.6497603379938075
sS'pfit'
p549
(lp550
sg45
I2
sS'clevel'
p551
S'95% confidence bound'
p552
sS'astar'
p553
F1.283206834237224
sS'decision_V21'
p554
(lp555
F7.659298125088048e-05
aF7.659298125088048e-05
aF7.659298125088048e-05
aF7.659298125088048e-05
aF7.659298125088048e-05
aF7.659298125088048e-05
aF7.659298125088048e-05
aF7.659298125088048e-05
aF7.659298125088048e-05
aF7.659298125088048e-05
aF7.659298125088048e-05
aF7.659298125088048e-05
aF7.659298125088048e-05
aF7.659298125088048e-05
aF7.659298125088048e-05
aF7.659298125088048e-05
aF7.659298125088048e-05
aF7.659298125088048e-05
aF7.659298125088048e-05
aF7.659298125088048e-05
aF7.659298125088048e-05
aF7.659298125088048e-05
aF7.659298125088048e-05
aF7.659298125088048e-05
aF7.659298125088048e-05
aF7.659298125088048e-05
aF7.659298125088048e-05
aF7.659298125088048e-05
aF7.659298125088048e-05
aF7.659298125088048e-05
aF7.659298125088048e-05
aF7.659298125088048e-05
aF7.659298125088048e-05
aF7.659298125088048e-05
aF7.659298125088048e-05
aF7.659298125088048e-05
aF7.659298125088048e-05
aF7.659298125088048e-05
aF7.659298125088048e-05
aF7.659298125088048e-05
aF7.659298125088048e-05
aF7.659298125088048e-05
aF7.659298125088048e-05
aF7.659298125088048e-05
aF7.659298125088048e-05
aF7.659298125088048e-05
aF7.659298125088048e-05
aF7.659298125088048e-05
aF7.659298125088048e-05
aF7.659298125088048e-05
aF7.659298125088048e-05
aF7.659298125088048e-05
aF7.659298125088048e-05
aF7.659298125088048e-05
aF7.659298125088048e-05
aF7.659298125088048e-05
aF7.659298125088048e-05
aF7.659298125088048e-05
aF7.659298125088048e-05
aF7.659298125088048e-05
aF7.659298125088048e-05
aF7.659298125088048e-05
aF7.659298125088048e-05
aF7.659298125088048e-05
aF7.659298125088048e-05
aF7.659298125088048e-05
aF7.659298125088048e-05
aF7.659298125088048e-05
aF7.659298125088048e-05
aF7.659298125088048e-05
aF7.659298125088048e-05
asS'asize'
p556
S'a90'
p557
sS'mhat'
p558
F5.35191184934948
sS'info_row'
p559
I0
sS'm90'
p560
F5.848426697150992
sS'pf_covariance'
p561
(lp562
F0.0
aF0.0
aF0.0
asS'decision_table_thresholds'
p563
(lp564
I35
aI36
aI37
aI38
aI39
aI40
aI41
aI42
aI43
aI44
aI50
aI52
aI54
aI56
aI58
aI60
aI62
aI64
aI66
aI68
aI75
aI77
aI79
aI81
aI83
aI85
aI87
aI89
aI91
aI93
aI100
aI105
aI110
aI115
aI120
aI125
aI130
aI135
aI140
aI145
aI150
aI155
aI160
aI165
aI170
aI175
aI180
aI185
aI190
aI195
aI200
aI210
aI220
aI230
aI240
aI250
aI260
aI270
aI280
aI290
aI300
aI310
aI320
aI330
aI340
aI350
aI360
aI370
aI380
aI390
aF400.0
asg557
F1.766172684414791
sS'pod'
p565
(lp566
F0.0013498980316255663
aF0.0018668094636794172
aF0.0025523202124228092
aF0.003450771308345442
aF0.004614777482672777
aF0.006105830311511378
aF0.007994698304462845
aF0.0103615589646345
aF0.013295799963397508
aF0.01689543326117731
aF0.02126607753582955
aF0.026519480560961976
aF0.03277157371308231
aF0.04014007467584717
aF0.04874168037552224
aF0.05868891864786952
aF0.07008675233581389
aF0.08302905162597642
aF0.09759506771961098
aF0.11384605196445341
aF0.1318221680103447
aF0.15153984022911765
aF0.17298966893634377
aF0.19613502269042626
aF0.2209113911679303
aF0.24722655007642602
aF0.2749615543902049
aF0.30397253981478245
aF0.33409327695307933
aF0.3651383902076005
aF0.39690712581086557
aF0.4291875319701669
aF0.46176089993600467
aF0.4944063083587905
aF0.526905114590147
aF0.559045245149694
aF0.590625152545411
aF0.6214573258151732
aF0.6513712661407044
aF0.6802158651565815
aF0.7078611506179608
aF0.7341993904781432
aF0.759145570911829
aF0.7826372853856619
aF0.8046340897762413
aF0.8251163923008619
aF0.8440839564661604
aF0.8615541004142455
aF0.8775596772291236
aF0.8921469184035721
aF0.905373217332729
aF0.9173049221464952
aF0.9280151976544809
aF0.9375820061132956
aF0.9460862456001876
aF0.9536100741883409
aF0.9602354380688298
aF0.9660428125594898
aF0.9711101568872615
aF0.9755120768538954
aF0.9793191840566328
aF0.98259763622439
aF0.9854088403763189
aF0.987809298799834
aF0.9898505771359938
aF0.9915793739914098
aF0.9930376723019321
aF0.994262953992059
aF0.9952884611537894
aF0.9961434888734917
aF0.9968536968480552
aF0.9974414289550031
aF0.9979260318985271
aF0.9983241658870848
aF0.9986501019683744
asS'repeatability_error'
p567
F0.04885604733334483
sS'sig_guess'
p568
F0.0
sg46
I0
sS'PlotTitle'
p569
g29
sS'rlonx'
p570
(lp571
F1.7749523509116738
aF1.7749523509116738
aF1.8562979903656263
aF1.8562979903656263
aF1.916922612182061
aF1.916922612182061
aF1.9878743481543455
aF1.9878743481543455
aF2.0412203288596382
aF2.0412203288596382
aF2.0918640616783932
aF2.151762203259462
aF2.1972245773362196
aF2.1972245773362196
aF2.174751721484161
aF2.2512917986064953
aF2.2925347571405443
aF2.2925347571405443
aF2.2925347571405443
aF2.379546134130174
aF2.4159137783010487
aF2.4595888418037104
aF2.4595888418037104
aF2.5257286443082556
aF2.4932054526026954
aF2.5649493574615367
aF2.5952547069568657
aF2.631888840136646
aF2.6602595372658615
aF2.747270914255491
aF2.7788192719904172
aF0.7884573603642703
aF0.8754687373538999
aF0.8754687373538999
aF0.9932517730102834
aF1.0647107369924282
aF1.0647107369924282
aF1.0647107369924282
aF1.0647107369924282
aF1.1314021114911006
aF1.1939224684724346
aF1.1939224684724346
aF1.1939224684724346
aF1.252762968495368
aF1.308332819650179
aF1.5260563034950492
aF1.5260563034950492
aF1.62924053973028
aF1.62924053973028
aF1.62924053973028
aF1.7047480922384253
aF1.7047480922384253
aF1.5260563034950492
aF1.7047480922384253
asS'data_column'
p572
I0
sS'linfit'
p573
(dp574
S'slope'
p575
F2.3018374374163333
sS'rms'
p576
F0.15935084900206306
sS'intercept'
p577
F-0.30587801479053833
ssS'iret'
p578
I0
sS'pod_bounds'
p579
(lp580
F1.6861940749723263e-05
aF2.8548267543706192e-05
aF4.7424092453540265e-05
aF7.733062823377905e-05
aF0.00012382850888976958
aF0.00019479916479232844
aF0.000301182144089316
aF0.00045784994711232615
aF0.0006846097186675736
aF0.0010073055097829173
aF0.0014589765409762654
aF0.0020810073572857858
aF0.0029241869337299988
aF0.004049578091384267
aF0.0055290886426506
aF0.007445633983281646
aF0.009892789340570527
aF0.012973849610105757
aF0.016800245486198566
aF0.02148930484826245
aF0.027161395182885902
aF0.03393653214918377
aF0.041930586482558034
aF0.05125126139252632
aF0.06199404104474542
aF0.07423832430120422
aF0.0880439548318765
aF0.1034483389996474
aF0.12046430838599514
aF0.13907883745458716
aF0.15925267397204712
aF0.18092088393140104
aF0.2039942602918341
aF0.22836149894365665
aF0.2538920096767131
aF0.28043920633106756
aF0.30784410923336836
aF0.33593909378143094
aF0.3645516299609659
aF0.3935078763448631
aF0.42263601612880797
aF0.4517692494175957
aF0.4807483829926572
aF0.5094239843027208
aF0.5376580890831602
aF0.565325471001554
aF0.5923144966886871
aF0.618527600464831
aF0.6438814203057073
aF0.6683066405829535
aF0.691747588420626
aF0.7141616297128577
aF0.7355184084985676
aF0.7557989699764909
aF0.7749948033798986
aF0.7931068365460644
aF0.8101444095640975
aF0.8261242505505553
aF0.8410694725114423
aF0.8550086064814633
aF0.8679746827302057
aF0.8800043688073154
aF0.8911371705628375
aF0.901414700011122
aF0.910880012022536
aF0.9195770101523331
aF0.9275499206273652
aF0.9348428325375724
aF0.9414993013144852
aF0.9475620120435257
aF0.9530724986814296
aF0.958070914950366
aF0.9625958525089251
aF0.9666842019368418
aF0.9703710520967066
asS'deter'
p581
F3.77617242657081e-08
sS'nrows'
p582
I54
sS'sighat'
p583
F0.06922767281990352
sS'nexcluded'
p584
I23
sS'have_guess'
p585
I00
sS'variance'
p586
(lp587
(lp588
F-1.3575142501175563
aF0.6051986047034849
aF0.029134675848605716
aa(lp589
F0.6051986047034849
aF-0.2757199549164781
aF-0.01219579697497959
aa(lp590
F0.029134675848605716
aF-0.01219579697497959
aF-0.016349133970021235
aasg41
F0.14321480166228184
sS'amax'
p591
F30.0
sS'fit_errors'
p592
(lp593
F0.18566352011585294
aF0.08367360510092432
aF0.020375194256413688
asS'info'
p594
(lp595
sS'fnorm'
p596
F4.4061084346872e-26
sS'meas'
p597
(dp598
g15
(lp599
Fnan
aFnan
aFnan
aFnan
aFnan
aFnan
aFnan
aI35
aI35
aI35
aI35
aI35
aI35
aI35
aI35
aI35
aI35
aI35
aI35
aI35
aI35
aI35
aI35
aI35
aI35
aI35
aI35
aI35
aI35
aI42
aI41
aI35
aI65
aI62
aI80
aI55
aI95
aI67
aI78
aI77
aI92
aI121
aI136
aI112
aI145
aI112
aI231
aI124
aI189
aI230
aI187
aI205
aI212
aI210
aI198
aI230
aI308
aI289
aI309
aI342
aI376
asg16
(lp600
Fnan
aFnan
aFnan
aFnan
aFnan
aFnan
aFnan
aI35
aI35
aI35
aI35
aI35
aI35
aI35
aI35
aI35
aI35
aI35
aI35
aI35
aI35
aI35
aI35
aI35
aI35
aI35
aI35
aI35
aI35
aI41
aI35
aI35
aI60
aI57
aI76
aI55
aI90
aI65
aI78
aI70
aI85
aI107
aI131
aI113
aI140
aI111
aI227
aI128
aI183
aI215
aI185
aI203
aI210
aI210
aI233
aI201
aI286
aI286
aI321
aI385
aI366
asg17
(lp601
Fnan
aFnan
aFnan
aFnan
aFnan
aFnan
aFnan
aI35
aI35
aI35
aI35
aI35
aI35
aI35
aI35
aI35
aI35
aI35
aI35
aI35
aI35
aI35
aI35
aI35
aI35
aI35
aI35
aI35
aI35
aI44
aI39
aI35
aI61
aI61
aI81
aI55
aI92
aI65
aI80
aI86
aI88
aI114
aI135
aI113
aI142
aI111
aI228
aI128
aI184
aI226
aI184
aI208
aI212
aI211
aI242
aI277
aI314
aI295
aI317
aI349
aI388
assS'flaw_name'
p602
g29
sS'a9095'
p603
F1.8325998717187746
sS'EV_Bartlett'
p604
F0.8313706613757881
sS'analyses'
p605
(lp606
(i__main__
CAnal
p607
(dp608
S'flaw'
p609
g257
sg44
F43.80612974769771
sg43
F1.7749523509116738
sg40
F5.9
sg64
F0.41397983628677104
sg63
F3.745143772968646
sg22
F-0.034629983199438996
sg65
F3.779773756168085
sg66
F42.31509054770478
sg48
I00
sba(i__main__
CAnal
p610
(dp611
g609
g266
sg44
F43.80612974769771
sg43
F1.7749523509116738
sg40
F5.9
sg64
F0.2835372526137583
sg63
F3.688566856416977
sg22
F-0.09120689975110796
sg65
F3.779773756168085
sg66
F39.98749804626441
sg48
I00
sba(i__main__
CAnal
p612
(dp613
g609
g284
sg44
F52.826776583837976
sg43
F1.8562979903656263
sg40
F6.4
sg64
F0.841596968271001
sg63
F4.126535232097016
sg22
F0.1595170376632522
sg65
F3.9670181944337637
sg66
F61.962863643508996
sg48
I00
sba(i__main__
CAnal
p614
(dp615
g609
g293
sg44
F52.826776583837976
sg43
F1.8562979903656263
sg40
F6.4
sg64
F0.7866647494995365
sg63
F4.0936865056843175
sg22
F0.12666831125055378
sg65
F3.9670181944337637
sg66
F59.96052959603605
sg48
I00
sba(i__main__
CAnal
p616
(dp617
g609
g302
sg44
F60.73779875805156
sg43
F1.916922612182061
sg40
F6.8
sg64
F0.9502549194959796
sg63
F4.36906970987755
sg22
F0.26250349131750994
sg65
F4.10656621856004
sg66
F78.97013238289671
sg48
I00
sba(i__main__
CAnal
p618
(dp619
g609
g311
sg44
F60.73779875805156
sg43
F1.916922612182061
sg40
F6.8
sg64
F0.26672999438902323
sg63
F4.007333185232471
sg22
F-0.09923303332756905
sg65
F4.10656621856004
sg66
F55.000000000000014
sg48
I00
sba(i__main__
CAnal
p620
(dp621
g609
g320
sg44
F71.51345262979798
sg43
F1.9878743481543455
sg40
F7.3
sg64
F0.9454171569199404
sg63
F4.525158379659949
sg22
F0.2552727989892247
sg65
F4.269885580670724
sg66
F92.31054478364729
sg48
I00
sba(i__main__
CAnal
p622
(dp623
g609
g329
sg44
F71.51345262979798
sg43
F1.9878743481543455
sg40
F7.3
sg64
F0.2960129482207462
sg63
F4.184489053060747
sg22
F-0.08539652760997729
sg65
F4.269885580670724
sg66
F65.65994359725038
sg48
I00
sba(i__main__
CAnal
p624
(dp625
g609
g338
sg44
F80.85677310199233
sg43
F2.0412203288596382
sg40
F7.7
sg64
F0.43141558165122496
sg63
F4.3651480960176885
sg22
F-0.02753126017616747
sg65
F4.392679356193856
sg66
F78.66104846723071
sg48
I00
sba(i__main__
CAnal
p626
(dp627
g609
g347
sg44
F80.85677310199233
sg43
F2.0412203288596382
sg40
F7.7
sg64
F0.3917178579126133
sg63
F4.348882653385517
sg22
F-0.04379670280833903
sg65
F4.392679356193856
sg66
F77.39194097352252
sg48
I00
sba(i__main__
CAnal
p628
(dp629
g609
g356
sg44
F90.85392494327259
sg43
F2.0918640616783932
sg40
F8.1
sg64
F0.42863139522757654
sg63
F4.480592216005855
sg22
F-0.02866078036072217
sg65
F4.509252996366577
sg66
F88.28694213695948
sg48
I00
sba(i__main__
CAnal
p630
(dp631
g609
g365
sg44
F104.28512987046143
sg43
F2.151762203259462
sg40
F8.6
sg64
F0.7092007513197989
sg63
F4.7349392761510485
sg22
F0.08781049506150396
sg65
F4.6471287810895445
sg66
F113.8565447006668
sg48
I00
sba(i__main__
CAnal
p632
(dp633
g609
g374
sg44
F115.789718643271
sg43
F2.1972245773362196
sg40
F9.0
sg64
F0.8201136250793943
sg63
F4.897708995791877
sg22
F0.14593322005862586
sg65
F4.751775775733251
sg66
F133.9824733889912
sg48
I00
sba(i__main__
CAnal
p634
(dp635
g609
g383
sg44
F115.789718643271
sg43
F2.1972245773362196
sg40
F9.0
sg64
F0.431860378557428
sg63
F4.724424836239925
sg22
F-0.02735093949332601
sg65
F4.751775775733251
sg66
F112.6656785195518
sg48
I00
sba(i__main__
CAnal
p636
(dp637
g609
g392
sg44
F109.95233072353338
sg43
F2.174751721484161
sg40
F8.8
sg64
F0.9472978346721709
sg63
F4.958067740877046
sg22
F0.2580208260697239
sg65
F4.700046914807322
sg66
F142.3185337585234
sg48
I00
sba(i__main__
CAnal
p638
(dp639
g609
g401
sg44
F131.1353151012533
sg43
F2.2512917986064953
sg40
F9.5
sg64
F0.15212654773708323
sg63
F4.712519757973254
sg22
F-0.16370997181699032
sg65
F4.876229729790245
sg66
F111.33233731245458
sg48
I00
sba(i__main__
CAnal
p640
(dp641
g609
g410
sg44
F144.19467780929835
sg43
F2.2925347571405443
sg40
F9.9
sg64
F0.9980948159449183
sg63
F5.4322377856525454
sg22
F0.4610734698788175
sg65
F4.971164315773728
sg66
F228.66036620813733
sg48
I00
sba(i__main__
CAnal
p642
(dp643
g609
g419
sg44
F144.19467780929835
sg43
F2.2925347571405443
sg40
F9.9
sg64
F0.2078128405148158
sg63
F4.841447364481424
sg22
F-0.12971695129230376
sg65
F4.971164315773728
sg66
F126.65253150977304
sg48
I00
sba(i__main__
CAnal
p644
(dp645
g609
g428
sg44
F144.19467780929835
sg43
F2.2925347571405443
sg40
F9.9
sg64
F0.9423097588192288
sg63
F5.22205630850335
sg22
F0.25089199272962226
sg65
F4.971164315773728
sg66
F185.3148570623664
sg48
I00
sba(i__main__
CAnal
p646
(dp647
g609
g437
sg44
F176.17016258218064
sg43
F2.379546134130174
sg40
F10.8
sg64
F0.9326008179467091
sg63
F5.409750778774381
sg22
F0.2383004179647772
sg65
F5.171450360809604
sg66
F223.5758608866155
sg48
I00
sba(i__main__
CAnal
p648
(dp649
g609
g446
sg44
F191.5526615149649
sg43
F2.4159137783010487
sg40
F11.2
sg64
F0.4178977481013184
sg63
F5.222133399847299
sg22
F-0.033029365825460566
sg65
F5.255162765672759
sg66
F185.3291437844352
sg48
I00
sba(i__main__
CAnal
p650
(dp651
g609
g455
sg44
F211.81127415087238
sg43
F2.4595888418037104
sg40
F11.7
sg64
F0.42260419625594553
sg63
F5.324584679293838
sg22
F-0.0311109826308833
sg65
F5.355695661924721
sg66
F205.3230678325874
sg48
I00
sba(i__main__
CAnal
p652
(dp653
g609
g464
sg44
F211.81127415087238
sg43
F2.4595888418037104
sg40
F11.7
sg64
F0.494319723329854
sg63
F5.353426693353831
sg22
F-0.0022689685708900953
sg65
F5.355695661924721
sg66
F211.33122584007813
sg48
I00
sba(i__main__
CAnal
p654
(dp655
g609
g473
sg44
F246.64220789542702
sg43
F2.5257286443082556
sg40
F12.5
sg64
F0.1588119789711897
sg63
F5.3486910649703345
sg22
F-0.15924767046267174
sg65
F5.507938735433006
sg66
F210.3328056281129
sg48
I00
sba(i__main__
CAnal
p656
(dp657
g609
g482
sg44
F228.85202946938776
sg43
F2.4932054526026954
sg40
F12.1
sg64
F0.4409799597581682
sg63
F5.409414403472307
sg22
F-0.02366123170857204
sg65
F5.433075635180879
sg66
F223.50066813607444
sg48
I00
sba(i__main__
CAnal
p658
(dp659
g609
g491
sg44
F269.945055810363
sg43
F2.5649493574615367
sg40
F13.0
sg64
F0.18461373386508761
sg63
F5.455133907723204
sg22
F-0.1430845335681914
sg65
F5.598218441291396
sg66
F233.95619751373548
sg48
I00
sba(i__main__
CAnal
p660
(dp661
g609
g500
sg44
F289.4482224318521
sg43
F2.5952547069568657
sg40
F13.4
sg64
F0.6084148744539053
sg63
F5.711828193233894
sg22
F0.043851763920164544
sg65
F5.66797642931373
sg66
F302.42345170529893
sg48
I00
sba(i__main__
CAnal
p662
(dp663
g609
g509
sg44
F314.9148385784413
sg43
F2.631888840136646
sg40
F13.9
sg64
F0.30231548966615085
sg63
F5.669797951757368
sg22
F-0.0825042967968761
sg65
F5.752302248554244
sg66
F289.9759393434709
sg48
I00
sba(i__main__
CAnal
p664
(dp665
g609
g518
sg44
F336.16663728762296
sg43
F2.6602595372658615
sg40
F14.3
sg64
F0.34618526545258477
sg63
F5.754561391301681
sg22
F-0.0630455900301925
sg65
F5.817606981331873
sg66
F315.62708037709893
sg48
I00
sba(i__main__
CAnal
p666
(dp667
g609
g527
sg44
F410.71232340481384
sg43
F2.747270914255491
sg40
F15.6
sg64
F0.19522453450439758
sg63
F5.8810419978509385
sg22
F-0.1368510285168103
sg65
F6.017893026367749
sg66
F358.1822724846407
sg48
I00
sba(i__main__
CAnal
p668
(dp669
g609
g536
sg44
F441.6475727423745
sg43
F2.7788192719904172
sg40
F16.1
sg64
F0.1585255659271288
sg63
F5.931075938804845
sg22
F-0.15943627848615893
sg65
F6.090512217291004
sg66
F376.5594508674555
sg48
I00
sba(i__main__
CAnal
p670
(dp671
g609
g37
sg44
F4.52230877833899
sg43
F0.7884573603642703
sg40
F2.2
sg64
F1.0
sg63
F3.5553480614894135
sg22
F2.0463254063870133
sg65
F1.5090226551024002
sg66
I35
sg48
I01
sba(i__main__
CAnal
p672
(dp673
g609
g68
sg44
F5.525140628147563
sg43
F0.8754687373538999
sg40
F2.4
sg64
F1.0
sg63
F3.5553480614894135
sg22
F1.846039361351138
sg65
F1.7093087001382754
sg66
I35
sg48
I01
sba(i__main__
CAnal
p674
(dp675
g609
g77
sg44
F5.525140628147563
sg43
F0.8754687373538999
sg40
F2.4
sg64
F1.0
sg63
F3.5553480614894135
sg22
F1.846039361351138
sg65
F1.7093087001382754
sg66
I35
sg48
I01
sba(i__main__
CAnal
p676
(dp677
g609
g86
sg44
F7.245829783545314
sg43
F0.9932517730102834
sg40
F2.7
sg64
F1.0
sg63
F3.5553480614894135
sg22
F1.5749219603847315
sg65
F1.980426101104682
sg66
I35
sg48
I01
sba(i__main__
CAnal
p678
(dp679
g609
g95
sg44
F8.5412982797649
sg43
F1.0647107369924282
sg40
F2.9
sg64
F1.0
sg63
F3.5553480614894135
sg22
F1.4104350418516454
sg65
F2.144913019637768
sg66
I35
sg48
I01
sba(i__main__
CAnal
p680
(dp681
g609
g104
sg44
F8.5412982797649
sg43
F1.0647107369924282
sg40
F2.9
sg64
F1.0
sg63
F3.5553480614894135
sg22
F1.4104350418516454
sg65
F2.144913019637768
sg66
I35
sg48
I01
sba(i__main__
CAnal
p682
(dp683
g609
g113
sg44
F8.5412982797649
sg43
F1.0647107369924282
sg40
F2.9
sg64
F1.0
sg63
F3.5553480614894135
sg22
F1.4104350418516454
sg65
F2.144913019637768
sg66
I35
sg48
I01
sba(i__main__
CAnal
p684
(dp685
g609
g122
sg44
F8.5412982797649
sg43
F1.0647107369924282
sg40
F2.9
sg64
F1.0
sg63
F3.5553480614894135
sg22
F1.4104350418516454
sg65
F2.144913019637768
sg66
I35
sg48
I01
sba(i__main__
CAnal
p686
(dp687
g609
g131
sg44
F9.958492674195275
sg43
F1.1314021114911006
sg40
F3.1
sg64
F1.0
sg63
F3.5553480614894135
sg22
F1.2569223392778484
sg65
F2.298425722211565
sg66
I35
sg48
I01
sba(i__main__
CAnal
p688
(dp689
g609
g140
sg44
F11.499889429671791
sg43
F1.1939224684724346
sg40
F3.3
sg64
F0.9999999999985723
sg63
F3.5553480614894135
sg22
F1.1130106409775804
sg65
F2.442337420511833
sg66
I35
sg48
I01
sba(i__main__
CAnal
p690
(dp691
g609
g149
sg44
F11.499889429671791
sg43
F1.1939224684724346
sg40
F3.3
sg64
F0.9999999999985723
sg63
F3.5553480614894135
sg22
F1.1130106409775804
sg65
F2.442337420511833
sg66
I35
sg48
I01
sba(i__main__
CAnal
p692
(dp693
g609
g158
sg44
F11.499889429671791
sg43
F1.1939224684724346
sg40
F3.3
sg64
F0.9999999999985723
sg63
F3.5553480614894135
sg22
F1.1130106409775804
sg65
F2.442337420511833
sg66
I35
sg48
I01
sba(i__main__
CAnal
p694
(dp695
g609
g167
sg44
F13.167855710668713
sg43
F1.252762968495368
sg40
F3.5
sg64
F0.9999999995733951
sg63
F3.5553480614894135
sg22
F0.9775693751884953
sg65
F2.577778686300918
sg66
I35
sg48
I01
sba(i__main__
CAnal
p696
(dp697
g609
g176
sg44
F14.96466042968628
sg43
F1.308332819650179
sg40
F3.7
sg64
F0.9999999514279789
sg63
F3.5553480614894135
sg22
F0.8496566114086983
sg65
F2.705691450080715
sg66
I35
sg48
I01
sba(i__main__
CAnal
p698
(dp699
g609
g185
sg44
F24.701291166116704
sg43
F1.5260563034950492
sg40
F4.6
sg64
F0.9856269600716459
sg63
F3.5553480614894135
sg22
F0.34849254528986595
sg65
F3.2068555161995476
sg66
I35
sg48
I01
sba(i__main__
CAnal
p700
(dp701
g609
g194
sg44
F24.701291166116704
sg43
F1.5260563034950492
sg40
F4.6
sg64
F0.9856269600716459
sg63
F3.5553480614894135
sg22
F0.34849254528986595
sg65
F3.2068555161995476
sg66
I35
sg48
I01
sba(i__main__
CAnal
p702
(dp703
g609
g203
sg44
F31.323507503771662
sg43
F1.62924053973028
sg40
F5.1
sg64
F0.7569251119767352
sg63
F3.5553480614894135
sg22
F0.11097920737240052
sg65
F3.444368854117013
sg66
I35
sg48
I01
sba(i__main__
CAnal
p704
(dp705
g609
g212
sg44
F31.323507503771662
sg43
F1.62924053973028
sg40
F5.1
sg64
F0.7569251119767352
sg63
F3.5553480614894135
sg22
F0.11097920737240052
sg65
F3.444368854117013
sg66
I35
sg48
I01
sba(i__main__
CAnal
p706
(dp707
g609
g221
sg44
F31.323507503771662
sg43
F1.62924053973028
sg40
F5.1
sg64
F0.7569251119767352
sg63
F3.5553480614894135
sg22
F0.11097920737240052
sg65
F3.444368854117013
sg66
I35
sg48
I01
sba(i__main__
CAnal
p708
(dp709
g609
g230
sg44
F37.26948760798802
sg43
F1.7047480922384253
sg40
F5.5
sg64
F0.3466916781632887
sg63
F3.5553480614894135
sg22
F-0.06282690379852784
sg65
F3.6181749652879414
sg66
I35
sg48
I01
sba(i__main__
CAnal
p710
(dp711
g609
g239
sg44
F37.26948760798802
sg43
F1.7047480922384253
sg40
F5.5
sg64
F0.3466916781632887
sg63
F3.5553480614894135
sg22
F-0.06282690379852784
sg65
F3.6181749652879414
sg66
I35
sg48
I01
sba(i__main__
CAnal
p712
(dp713
g609
g248
sg44
F24.701291166116704
sg43
F1.5260563034950492
sg40
F4.6
sg64
F0.9856269600716459
sg63
F3.5553480614894135
sg22
F0.34849254528986595
sg65
F3.2068555161995476
sg66
I35
sg48
I01
sba(i__main__
CAnal
p714
(dp715
g609
g275
sg44
F37.26948760798802
sg43
F1.7047480922384253
sg40
F5.5
sg64
F0.3466916781632887
sg63
F3.5553480614894135
sg22
F-0.06282690379852784
sg65
F3.6181749652879414
sg66
I35
sg48
I01
sbasS'alevel'
p716
S'a90/95'
p717
sS'decision_V12'
p718
(lp719
F-5.757596854475577e-06
aF-5.353385379164266e-06
aF-4.96024959600471e-06
aF-4.577598693450621e-06
aF-4.204887908003537e-06
aF-3.841613859805582e-06
aF-3.487310464272537e-06
aF-3.1415453364535875e-06
aF-2.803916618532336e-06
aF-2.4740501720852702e-06
aF-6.398255665426621e-07
aF-7.706487062286342e-08
aF4.6445443212064273e-07
aF9.862777009270695e-07
aF1.4897875550328685e-06
aF1.9762259514793106e-06
aF2.4467126414799947e-06
aF2.9022606955970646e-06
aF3.3437896391996388e-06
aF3.7721366264593133e-06
aF5.17801424474223e-06
aF5.555629681910334e-06
aF5.923561596881882e-06
aF6.282294243405585e-06
aF6.632276434728833e-06
aF6.9739249197222495e-06
aF7.307627366317811e-06
aF7.633745005827784e-06
aF7.952614983372708e-06
aF8.264552452764903e-06
aF9.30583728212292e-06
aF1.0005905805474931e-05
aF1.0673400969843265e-05
aF1.1311219684190909e-05
aF1.1921888800144909e-05
aF1.250762557538584e-05
aF1.3070386271305638e-05
aF1.3611905574049161e-05
aF1.4133728842855572e-05
aF1.463723869696142e-05
aF1.512367709340783e-05
aF1.5594163783408497e-05
aF1.604971183752555e-05
aF1.6491240781128158e-05
aF1.6919587768387833e-05
aF1.7335517136118506e-05
aF1.7739728611429817e-05
aF1.8132864394589376e-05
aF1.8515515297143498e-05
aF1.8888226082590548e-05
aF1.9251500130788487e-05
aF1.9951568654140512e-05
aF2.061906381850883e-05
aF2.125688253285649e-05
aF2.1867551648810493e-05
aF2.2453288424051424e-05
aF2.3016049119971238e-05
aF2.355756842271476e-05
aF2.4079391691521138e-05
aF2.4582901545626987e-05
aF2.5069339942073396e-05
aF2.5539826632074078e-05
aF2.599537468619115e-05
aF2.643690362979374e-05
aF2.6865250617053346e-05
aF2.7281179984784108e-05
aF2.7685391460095384e-05
aF2.807852724325499e-05
aF2.846117814580901e-05
aF2.8833888931256163e-05
aF2.9197162979454085e-05
asg39
I0
sS'analysis'
p720
I1
sS'decision_V11'
p721
(lp722
F0.0004934508824437786
aF0.0004769104694988004
aF0.0004612029859355517
aF0.0004462740083357114
aF0.00043207386755414153
aF0.00041855712869181264
aF0.00040568213904260917
aF0.0003934106337359836
aF0.00038170739055337177
aF0.0003705399268191889
aF0.00031325145051332897
aF0.000297308698844738
aF0.00028269206692462624
aF0.00026927920629860264
aF0.0002569624374578454
aF0.0002456465812705258
aF0.0002352471691760706
aF0.0002256889563453781
aF0.00021690467900313168
aF0.00020883400990511614
aF0.00018546891371364415
aF0.00018000890222762242
aF0.00017502118682041076
aF0.0001704739444285869
aF0.00016633807642432808
aF0.00016258692116182498
aF0.00015919600252616646
aF0.00015614280928505535
aF0.0001534066008908492
aF0.0001509682360745804
aF0.00014453555099275324
aF0.00014168746796957074
aF0.0001400776542962937
aF0.00013954790767412546
aF0.0001399642427236423
aF0.0001412124529515028
aF0.00014319461777114186
aF0.0001458263266623525
aF0.00014903445357647866
aF0.0001527553578555476
aF0.0001569334188806203
aF0.00016151983413379299
aF0.00016647162686252924
aF0.00017175082178939142
aF0.0001773237565007428
aF0.00018316050310544684
aF0.0001892343800680401
aF0.00019552153821198937
aF0.0002020006080632704
aF0.00020865239818565896
aF0.0002154596361117627
aF0.00022947965054326578
aF0.00024395308173462757
aF0.0002587915281866514
aF0.00027392188881634615
aF0.0002892833817843719
aF0.0003048252224725808
aF0.0003205047974905738
aF0.00033628621610220914
aF0.0003521391517541274
aF0.00036803790868718164
aF0.0003839606647032053
aF0.0003998888529072664
aF0.0004158066539152772
aF0.0004317005764792448
aF0.00044755910934503594
aF0.0004633724308482958
aF0.0004791321655787585
aF0.0004948311796213579
aF0.0005104634075746499
aF0.0005260237058703595
asg49
F60.0
sS'acount'
p723
I0
sS'pod_threshold'
p724
I35
sS'xmax'
p725
F16.1
sS'mu_guess'
p726
F0.0
sS'npts'
p727
I31
sS'model'
p728
I0
sS'rlony'
p729
(lp730
F3.745143772968646
aF3.688566856416977
aF4.126535232097016
aF4.0936865056843175
aF4.36906970987755
aF4.007333185232471
aF4.525158379659949
aF4.184489053060747
aF4.3651480960176885
aF4.348882653385517
aF4.480592216005855
aF4.7349392761510485
aF4.897708995791877
aF4.724424836239925
aF4.958067740877046
aF4.712519757973254
aF5.4322377856525454
aF4.841447364481424
aF5.22205630850335
aF5.409750778774381
aF5.222133399847299
aF5.324584679293838
aF5.353426693353831
aF5.3486910649703345
aF5.409414403472307
aF5.455133907723204
aF5.711828193233894
aF5.669797951757368
aF5.754561391301681
aF5.8810419978509385
aF5.931075938804845
aF3.5553480614894135
aF3.5553480614894135
aF3.5553480614894135
aF3.5553480614894135
aF3.5553480614894135
aF3.5553480614894135
aF3.5553480614894135
aF3.5553480614894135
aF3.5553480614894135
aF3.5553480614894135
aF3.5553480614894135
aF3.5553480614894135
aF3.5553480614894135
aF3.5553480614894135
aF3.5553480614894135
aF3.5553480614894135
aF3.5553480614894135
aF3.5553480614894135
aF3.5553480614894135
aF3.5553480614894135
aF3.5553480614894135
aF3.5553480614894135
aF3.5553480614894135
asS'flaw_units'
p731
g29
sS'decision_a50'
p732
(lp733
F5.35191184934948
aF5.4178132918708135
aF5.482687336460599
aF5.54657713495258
aF5.609522946439854
aF5.671562399936535
aF5.732730727256921
aF5.793060970129326
aF5.852584164937591
aF5.911329507968314
aF6.248904231993551
aF6.3562907853142825
aF6.461365914338016
aF6.564262311569042
aF6.66510062608639
aF6.763990930986267
aF6.86103396941219
aF6.95632221859945
aF7.049940803334301
aF7.141968284028342
aF7.452537514932231
aF7.538232624368551
aF7.622677896080202
aF7.705922524427343
aF7.788012608230281
aF7.868991415016052
aF7.948899617055033
aF8.027775502775203
aF8.10565516661538
aF8.182572679939497
aF8.444656699984971
aF8.62556165041426
aF8.801657253359688
aF8.973281625166392
aF9.140735593537526
aF9.304288178308552
aF9.464181081364389
aF9.620632395789137
aF9.773839693709553
aF9.923982615228613
aF10.07122505336976
aF10.215717009349921
aF10.357596176885487
aF10.496989302284783
aF10.634013357849147
aF10.768776558912874
aF10.901379249203549
aF11.031914674734754
aF11.160469662881235
aF11.287125220429012
aF11.411957062086495
aF11.656428755840679
aF11.894401183972548
aF12.126331270824878
aF12.352625549540889
aF12.57364756868389
aF12.789723959830601
aF13.001149450049214
aF13.208191034755574
aF13.41109147635136
aF13.610072256918398
aF13.805336085401256
aF13.997069038609803
aF14.185442399223696
aF14.370614241505487
aF14.552730805710075
aF14.731927694544773
aF14.908330918993903
aF15.082057816008822
aF15.253217856702067
aF15.421913360567714
asS'signalmax'
p734
I4095
sb.