(i__main__
CPodDoc
p0
(dp1
S'sequence'
p2
I140
sS'm9095'
p3
F0.0
sS'decision_confidence'
p4
(lp5
sS'bcount'
p6
I0
sS'crkmin'
p7
F2.5
sS'flaw_column'
p8
I0
sS'confidence_level'
p9
I95
sS'podfile'
p10
NsS'signalmin'
p11
I0
sS'titles'
p12
(lp13
S'Ins 1'
p14
asS'decision_thresholds'
p15
(lp16
sS'muhat'
p17
F1.5572024214650348
sS'xmin'
p18
F2.5
sS'diff'
p19
(lp20
F0.2574612204586167
aF-0.4316359659028641
aF-0.05681156063417536
aF0.13950567365599953
aF-0.033295654215353854
aF-0.40055809698634354
aF0.062266733215630254
aF-0.4369824778363027
aF-0.13213572323735312
aF0.1763324268226074
aF-0.012017545865902313
aF0.11927587397912687
aF0.10491429172503297
aF0.09238740974538362
aF0.08783509669948597
aF0.08145334236642332
aF0.06200871201043545
aF0.05488922177389166
aF0.05357477405270972
aF0.052294471979121515
aF0.04421239946083866
aF0.03927598745535077
aF0.03836274690459063
aF0.0374726320933757
aF0.03493484729623797
aF0.027742688920411762
aF0.026268817574635617
aF0.024768183166445468
aF0.021651121217137193
aF0.018546733088641965
aF0.017751947600864737
aF0.015923606617448183
aF0.014609394439781043
aF0.012639974884848693
aF0.01157026438193609
aF0.01095809434677808
aF0.009716683629746758
aF0.009479617040983768
aF0.00848860879229707
aF0.007518918912290173
aF0.006284779723307987
aF0.00516831360682346
aF0.0045953992199839755
aF0.004265848656005211
aF0.0038807338475376207
aF0.001592567488229002
asS'info_count'
p21
I0
sS'ahat_transform'
p22
I1
sS'res_sums'
p23
(lp24
F-9.46222645687089e-09
aF-1.253550374276901e-08
asS'data_units'
p25
S''
p26
sS'pod_level'
p27
I0
sS'pfdata'
p28
(lp29
(i__main__
PFData
p30
(dp31
S'count'
p32
F10.0
sS'crksize'
p33
F2.5
sS'crkf'
p34
F0.9162907318741551
sS'prob'
p35
F0.4
sS'above'
p36
I4
sba(i__main__
PFData
p37
(dp38
g32
F4.0
sg33
F4.28
sg34
F1.4539530095937054
sg35
F0.0
sg36
I0
sba(i__main__
PFData
p39
(dp40
g32
F8.0
sg33
F5.17
sg34
F1.6428726885203377
sg35
F0.5
sg36
I4
sba(i__main__
PFData
p41
(dp42
g32
F8.0
sg33
F5.615
sg34
F1.7254415881904066
sg35
F0.75
sg36
I6
sba(i__main__
PFData
p43
(dp44
g32
F8.0
sg33
F6.06
sg34
F1.801709800081223
sg35
F0.625
sg36
I5
sba(i__main__
PFData
p45
(dp46
g32
F10.0
sg33
F6.505
sg34
F1.8725711119644686
sg35
F0.3
sg36
I3
sba(i__main__
PFData
p47
(dp48
g32
F5.0
sg33
F6.95
sg34
F1.9387416595767009
sg35
F0.8
sg36
I4
sba(i__main__
PFData
p49
(dp50
g32
F3.0
sg33
F7.395
sg34
F2.000804096162763
sg35
F0.3333333333333333
sg36
I1
sba(i__main__
PFData
p51
(dp52
g32
F3.0
sg33
F7.84
sg34
F2.0592388343623163
sg35
F0.6666666666666666
sg36
I2
sba(i__main__
PFData
p53
(dp54
g32
F3.0
sg33
F8.285
sg34
F2.1144466508785262
sg35
F1.0
sg36
I3
sba(i__main__
PFData
p55
(dp56
g32
F6.0
sg33
F8.73
sg34
F2.166765369851511
sg35
F0.8333333333333334
sg36
I5
sba(i__main__
PFData
p57
(dp58
g32
F4.0
sg33
F9.62
sg34
F2.263844264677615
sg35
F1.0
sg36
I4
sba(i__main__
PFData
p59
(dp60
g32
F1.0
sg33
F10.065
sg34
F2.309064059091755
sg35
F1.0
sg36
I1
sba(i__main__
PFData
p61
(dp62
g32
F3.0
sg33
F10.51
sg34
F2.3523271848888596
sg35
F1.0
sg36
I3
sba(i__main__
PFData
p63
(dp64
g32
F1.0
sg33
F10.688
sg34
F2.36912161679429
sg35
F1.0
sg36
I1
sba(i__main__
PFData
p65
(dp66
g32
F2.0
sg33
F10.955
sg34
F2.3937959730474296
sg35
F1.0
sg36
I2
sba(i__main__
PFData
p67
(dp68
g32
F7.0
sg33
F11.934
sg34
F2.47939146909989
sg35
F1.0
sg36
I7
sba(i__main__
PFData
p69
(dp70
g32
F1.0
sg33
F12.379
sg34
F2.5160014885496733
sg35
F1.0
sg36
I1
sba(i__main__
PFData
p71
(dp72
g32
F3.0
sg33
F12.468
sg34
F2.5231653619050904
sg35
F1.0
sg36
I3
sba(i__main__
PFData
p73
(dp74
g32
F2.0
sg33
F12.557
sg34
F2.530278279006827
sg35
F1.0
sg36
I2
sba(i__main__
PFData
p75
(dp76
g32
F1.0
sg33
F13.18
sg34
F2.578700529074361
sg35
F1.0
sg36
I1
sba(i__main__
PFData
p77
(dp78
g32
F2.0
sg33
F13.625
sg34
F2.6119063405493077
sg35
F1.0
sg36
I2
sba(i__main__
PFData
p79
(dp80
g32
F1.0
sg33
F13.714
sg34
F2.618417208862173
sg35
F1.0
sg36
I1
sba(i__main__
PFData
p81
(dp82
g32
F4.0
sg33
F13.803
sg34
F2.6248859598414414
sg35
F1.0
sg36
I4
sba(i__main__
PFData
p83
(dp84
g32
F1.0
sg33
F14.07
sg34
F2.644044871126298
sg35
F1.0
sg36
I1
sba(i__main__
PFData
p85
(dp86
g32
F1.0
sg33
F14.96
sg34
F2.7053799725463312
sg35
F1.0
sg36
I1
sba(i__main__
PFData
p87
(dp88
g32
F1.0
sg33
F15.1736
sg34
F2.7195570756879754
sg35
F1.0
sg36
I1
sba(i__main__
PFData
p89
(dp90
g32
F1.0
sg33
F15.405
sg34
F2.734692132048631
sg35
F1.0
sg36
I1
sba(i__main__
PFData
p91
(dp92
g32
F3.0
sg33
F15.939
sg34
F2.7687689361369157
sg35
F1.0
sg36
I3
sba(i__main__
PFData
p93
(dp94
g32
F2.0
sg33
F16.562
sg34
F2.8071109146115085
sg35
F1.0
sg36
I2
sba(i__main__
PFData
p95
(dp96
g32
F3.0
sg33
F16.74
sg34
F2.817801065061329
sg35
F1.0
sg36
I3
sba(i__main__
PFData
p97
(dp98
g32
F1.0
sg33
F17.185
sg34
F2.844036910301797
sg35
F1.0
sg36
I1
sba(i__main__
PFData
p99
(dp100
g32
F1.0
sg33
F17.541
sg34
F2.864540997861643
sg35
F1.0
sg36
I1
sba(i__main__
PFData
p101
(dp102
g32
F2.0
sg33
F18.1462
sg34
F2.8984611723994727
sg35
F1.0
sg36
I2
sba(i__main__
PFData
p103
(dp104
g32
F2.0
sg33
F18.52
sg34
F2.918851229218033
sg35
F1.0
sg36
I2
sba(i__main__
PFData
p105
(dp106
g32
F1.0
sg33
F18.7514
sg34
F2.9312684162956697
sg35
F1.0
sg36
I1
sba(i__main__
PFData
p107
(dp108
g32
F1.0
sg33
F19.2676
sg34
F2.9584249287434767
sg35
F1.0
sg36
I1
sba(i__main__
PFData
p109
(dp110
g32
F1.0
sg33
F19.3744
sg34
F2.9639526070179647
sg35
F1.0
sg36
I1
sba(i__main__
PFData
p111
(dp112
g32
F1.0
sg33
F19.855
sg34
F2.988455864583215
sg35
F1.0
sg36
I1
sba(i__main__
PFData
p113
(dp114
g32
F1.0
sg33
F20.389
sg34
F3.014995539734837
sg35
F1.0
sg36
I1
sba(i__main__
PFData
p115
(dp116
g32
F1.0
sg33
F21.19
sg34
F3.0535293722802077
sg35
F1.0
sg36
I1
sba(i__main__
PFData
p117
(dp118
g32
F2.0
sg33
F22.08
sg34
F3.0946722214088944
sg35
F1.0
sg36
I2
sba(i__main__
PFData
p119
(dp120
g32
F1.0
sg33
F22.6229
sg34
F3.1189626675986046
sg35
F1.0
sg36
I1
sba(i__main__
PFData
p121
(dp122
g32
F3.0
sg33
F22.97
sg34
F3.134189016701007
sg35
F1.0
sg36
I3
sba(i__main__
PFData
p123
(dp124
g32
F1.0
sg33
F23.415
sg34
F3.153376842635505
sg35
F1.0
sg36
I1
sba(i__main__
PFData
p125
(dp126
g32
F13.0
sg33
F27.8116
sg34
F3.3254531998523156
sg35
F1.0
sg36
I13
sbasS'pod_crksize'
p127
(lp128
sS'flaws'
p129
(lp130
(i__main__
CrackData
p131
(dp132
g32
I1
sg33
F2.5
sS'ssy'
p133
I0
sg2
I0
sg34
F0.9162907318741551
sS'yfit_inv'
p134
I0
sS'a_transform'
p135
I2
sS'nsets'
p136
I1
sS'censored'
p137
I00
sS'scnt'
p138
I0
sS'ncensor'
p139
I0
sg36
I0
sS'rdata'
p140
(lp141
(i__main__
CInspection
p142
(dp143
S'flag'
p144
I0
sS'IsIncluded'
p145
I01
sS'value'
p146
F0.0
sbasS'ybar'
p147
I0
sS'dstar'
p148
F0.0
sS'yfit'
p149
I0
sg22
I1
sS'ybar_inv'
p150
I0
sS'sw'
p151
F0.0
sba(i__main__
CrackData
p152
(dp153
g32
I1
sg33
F2.5
sg133
I0
sg2
I0
sg34
F0.9162907318741551
sg134
I0
sg135
I2
sg136
I1
sg137
I00
sg138
I0
sg139
I0
sg36
I0
sg140
(lp154
(i__main__
CInspection
p155
(dp156
g144
I0
sg145
I01
sg146
F0.0
sbasg147
I0
sg148
F0.0
sg149
I0
sg22
I1
sg150
I0
sg151
F0.0
sba(i__main__
CrackData
p157
(dp158
g32
I1
sg33
F2.5
sg133
I0
sg2
I0
sg34
F0.9162907318741551
sg134
I0
sg135
I2
sg136
I1
sg137
I00
sg138
I0
sg139
I0
sg36
I1
sg140
(lp159
(i__main__
CInspection
p160
(dp161
g144
I0
sg145
I01
sg146
F1.0
sbasg147
I0
sg148
F0.0
sg149
I0
sg22
I1
sg150
I0
sg151
F0.0
sba(i__main__
CrackData
p162
(dp163
g32
I1
sg33
F2.5
sg133
I0
sg2
I0
sg34
F0.9162907318741551
sg134
I0
sg135
I2
sg136
I1
sg137
I00
sg138
I0
sg139
I0
sg36
I0
sg140
(lp164
(i__main__
CInspection
p165
(dp166
g144
I0
sg145
I01
sg146
F0.0
sbasg147
I0
sg148
F0.0
sg149
I0
sg22
I1
sg150
I0
sg151
F0.0
sba(i__main__
CrackData
p167
(dp168
g32
I1
sg33
F2.5
sg133
I0
sg2
I0
sg34
F0.9162907318741551
sg134
I0
sg135
I2
sg136
I1
sg137
I00
sg138
I0
sg139
I0
sg36
I1
sg140
(lp169
(i__main__
CInspection
p170
(dp171
g144
I0
sg145
I01
sg146
F1.0
sbasg147
I0
sg148
F0.0
sg149
I0
sg22
I1
sg150
I0
sg151
F0.0
sba(i__main__
CrackData
p172
(dp173
g32
I1
sg33
F2.5
sg133
I0
sg2
I0
sg34
F0.9162907318741551
sg134
I0
sg135
I2
sg136
I1
sg137
I00
sg138
I0
sg139
I0
sg36
I1
sg140
(lp174
(i__main__
CInspection
p175
(dp176
g144
I0
sg145
I01
sg146
F1.0
sbasg147
I0
sg148
F0.0
sg149
I0
sg22
I1
sg150
I0
sg151
F0.0
sba(i__main__
CrackData
p177
(dp178
g32
I1
sg33
F2.5
sg133
I0
sg2
I0
sg34
F0.9162907318741551
sg134
I0
sg135
I2
sg136
I1
sg137
I00
sg138
I0
sg139
I0
sg36
I0
sg140
(lp179
(i__main__
CInspection
p180
(dp181
g144
I0
sg145
I01
sg146
F0.0
sbasg147
I0
sg148
F0.0
sg149
I0
sg22
I1
sg150
I0
sg151
F0.0
sba(i__main__
CrackData
p182
(dp183
g32
I1
sg33
F2.5
sg133
I0
sg2
I0
sg34
F0.9162907318741551
sg134
I0
sg135
I2
sg136
I1
sg137
I00
sg138
I0
sg139
I0
sg36
I0
sg140
(lp184
(i__main__
CInspection
p185
(dp186
g144
I0
sg145
I01
sg146
F0.0
sbasg147
I0
sg148
F0.0
sg149
I0
sg22
I1
sg150
I0
sg151
F0.0
sba(i__main__
CrackData
p187
(dp188
g32
I1
sg33
F2.5
sg133
I0
sg2
I0
sg34
F0.9162907318741551
sg134
I0
sg135
I2
sg136
I1
sg137
I00
sg138
I0
sg139
I0
sg36
I0
sg140
(lp189
(i__main__
CInspection
p190
(dp191
g144
I0
sg145
I01
sg146
F0.0
sbasg147
I0
sg148
F0.0
sg149
I0
sg22
I1
sg150
I0
sg151
F0.0
sba(i__main__
CrackData
p192
(dp193
g32
I1
sg33
F2.5
sg133
I0
sg2
I0
sg34
F0.9162907318741551
sg134
I0
sg135
I2
sg136
I1
sg137
I00
sg138
I0
sg139
I0
sg36
I1
sg140
(lp194
(i__main__
CInspection
p195
(dp196
g144
I0
sg145
I01
sg146
F1.0
sbasg147
I0
sg148
F0.0
sg149
I0
sg22
I1
sg150
I0
sg151
F0.0
sba(i__main__
CrackData
p197
(dp198
g32
I1
sg33
F4.28
sg133
I0
sg2
I0
sg34
F1.4539530095937054
sg134
I0
sg135
I2
sg136
I1
sg137
I00
sg138
I0
sg139
I0
sg36
I0
sg140
(lp199
(i__main__
CInspection
p200
(dp201
g144
I0
sg145
I01
sg146
F0.0
sbasg147
I0
sg148
F0.0
sg149
I0
sg22
I1
sg150
I0
sg151
F0.0
sba(i__main__
CrackData
p202
(dp203
g32
I1
sg33
F4.28
sg133
I0
sg2
I0
sg34
F1.4539530095937054
sg134
I0
sg135
I2
sg136
I1
sg137
I00
sg138
I0
sg139
I0
sg36
I0
sg140
(lp204
(i__main__
CInspection
p205
(dp206
g144
I0
sg145
I01
sg146
F0.0
sbasg147
I0
sg148
F0.0
sg149
I0
sg22
I1
sg150
I0
sg151
F0.0
sba(i__main__
CrackData
p207
(dp208
g32
I1
sg33
F4.28
sg133
I0
sg2
I0
sg34
F1.4539530095937054
sg134
I0
sg135
I2
sg136
I1
sg137
I00
sg138
I0
sg139
I0
sg36
I0
sg140
(lp209
(i__main__
CInspection
p210
(dp211
g144
I0
sg145
I01
sg146
F0.0
sbasg147
I0
sg148
F0.0
sg149
I0
sg22
I1
sg150
I0
sg151
F0.0
sba(i__main__
CrackData
p212
(dp213
g32
I1
sg33
F4.28
sg133
I0
sg2
I0
sg34
F1.4539530095937054
sg134
I0
sg135
I2
sg136
I1
sg137
I00
sg138
I0
sg139
I0
sg36
I0
sg140
(lp214
(i__main__
CInspection
p215
(dp216
g144
I0
sg145
I01
sg146
F0.0
sbasg147
I0
sg148
F0.0
sg149
I0
sg22
I1
sg150
I0
sg151
F0.0
sba(i__main__
CrackData
p217
(dp218
g32
I1
sg33
F5.17
sg133
I0
sg2
I0
sg34
F1.6428726885203377
sg134
I0
sg135
I2
sg136
I1
sg137
I00
sg138
I0
sg139
I0
sg36
I0
sg140
(lp219
(i__main__
CInspection
p220
(dp221
g144
I0
sg145
I01
sg146
F0.0
sbasg147
I0
sg148
F0.0
sg149
I0
sg22
I1
sg150
I0
sg151
F0.0
sba(i__main__
CrackData
p222
(dp223
g32
I1
sg33
F5.17
sg133
I0
sg2
I0
sg34
F1.6428726885203377
sg134
I0
sg135
I2
sg136
I1
sg137
I00
sg138
I0
sg139
I0
sg36
I0
sg140
(lp224
(i__main__
CInspection
p225
(dp226
g144
I0
sg145
I01
sg146
F0.0
sbasg147
I0
sg148
F0.0
sg149
I0
sg22
I1
sg150
I0
sg151
F0.0
sba(i__main__
CrackData
p227
(dp228
g32
I1
sg33
F5.17
sg133
I0
sg2
I0
sg34
F1.6428726885203377
sg134
I0
sg135
I2
sg136
I1
sg137
I00
sg138
I0
sg139
I0
sg36
I0
sg140
(lp229
(i__main__
CInspection
p230
(dp231
g144
I0
sg145
I01
sg146
F0.0
sbasg147
I0
sg148
F0.0
sg149
I0
sg22
I1
sg150
I0
sg151
F0.0
sba(i__main__
CrackData
p232
(dp233
g32
I1
sg33
F5.17
sg133
I0
sg2
I0
sg34
F1.6428726885203377
sg134
I0
sg135
I2
sg136
I1
sg137
I00
sg138
I0
sg139
I0
sg36
I1
sg140
(lp234
(i__main__
CInspection
p235
(dp236
g144
I0
sg145
I01
sg146
F1.0
sbasg147
I0
sg148
F0.0
sg149
I0
sg22
I1
sg150
I0
sg151
F0.0
sba(i__main__
CrackData
p237
(dp238
g32
I1
sg33
F5.17
sg133
I0
sg2
I0
sg34
F1.6428726885203377
sg134
I0
sg135
I2
sg136
I1
sg137
I00
sg138
I0
sg139
I0
sg36
I0
sg140
(lp239
(i__main__
CInspection
p240
(dp241
g144
I0
sg145
I01
sg146
F0.0
sbasg147
I0
sg148
F0.0
sg149
I0
sg22
I1
sg150
I0
sg151
F0.0
sba(i__main__
CrackData
p242
(dp243
g32
I1
sg33
F5.17
sg133
I0
sg2
I0
sg34
F1.6428726885203377
sg134
I0
sg135
I2
sg136
I1
sg137
I00
sg138
I0
sg139
I0
sg36
I1
sg140
(lp244
(i__main__
CInspection
p245
(dp246
g144
I0
sg145
I01
sg146
F1.0
sbasg147
I0
sg148
F0.0
sg149
I0
sg22
I1
sg150
I0
sg151
F0.0
sba(i__main__
CrackData
p247
(dp248
g32
I1
sg33
F5.17
sg133
I0
sg2
I0
sg34
F1.6428726885203377
sg134
I0
sg135
I2
sg136
I1
sg137
I00
sg138
I0
sg139
I0
sg36
I1
sg140
(lp249
(i__main__
CInspection
p250
(dp251
g144
I0
sg145
I01
sg146
F1.0
sbasg147
I0
sg148
F0.0
sg149
I0
sg22
I1
sg150
I0
sg151
F0.0
sba(i__main__
CrackData
p252
(dp253
g32
I1
sg33
F5.17
sg133
I0
sg2
I0
sg34
F1.6428726885203377
sg134
I0
sg135
I2
sg136
I1
sg137
I00
sg138
I0
sg139
I0
sg36
I1
sg140
(lp254
(i__main__
CInspection
p255
(dp256
g144
I0
sg145
I01
sg146
F1.0
sbasg147
I0
sg148
F0.0
sg149
I0
sg22
I1
sg150
I0
sg151
F0.0
sba(i__main__
CrackData
p257
(dp258
g32
I1
sg33
F5.615
sg133
I0
sg2
I0
sg34
F1.7254415881904066
sg134
I0
sg135
I2
sg136
I1
sg137
I00
sg138
I0
sg139
I0
sg36
I0
sg140
(lp259
(i__main__
CInspection
p260
(dp261
g144
I0
sg145
I01
sg146
F0.0
sbasg147
I0
sg148
F0.0
sg149
I0
sg22
I1
sg150
I0
sg151
F0.0
sba(i__main__
CrackData
p262
(dp263
g32
I1
sg33
F5.615
sg133
I0
sg2
I0
sg34
F1.7254415881904066
sg134
I0
sg135
I2
sg136
I1
sg137
I00
sg138
I0
sg139
I0
sg36
I0
sg140
(lp264
(i__main__
CInspection
p265
(dp266
g144
I0
sg145
I01
sg146
F0.0
sbasg147
I0
sg148
F0.0
sg149
I0
sg22
I1
sg150
I0
sg151
F0.0
sba(i__main__
CrackData
p267
(dp268
g32
I1
sg33
F5.615
sg133
I0
sg2
I0
sg34
F1.7254415881904066
sg134
I0
sg135
I2
sg136
I1
sg137
I00
sg138
I0
sg139
I0
sg36
I1
sg140
(lp269
(i__main__
CInspection
p270
(dp271
g144
I0
sg145
I01
sg146
F1.0
sbasg147
I0
sg148
F0.0
sg149
I0
sg22
I1
sg150
I0
sg151
F0.0
sba(i__main__
CrackData
p272
(dp273
g32
I1
sg33
F5.615
sg133
I0
sg2
I0
sg34
F1.7254415881904066
sg134
I0
sg135
I2
sg136
I1
sg137
I00
sg138
I0
sg139
I0
sg36
I1
sg140
(lp274
(i__main__
CInspection
p275
(dp276
g144
I0
sg145
I01
sg146
F1.0
sbasg147
I0
sg148
F0.0
sg149
I0
sg22
I1
sg150
I0
sg151
F0.0
sba(i__main__
CrackData
p277
(dp278
g32
I1
sg33
F5.615
sg133
I0
sg2
I0
sg34
F1.7254415881904066
sg134
I0
sg135
I2
sg136
I1
sg137
I00
sg138
I0
sg139
I0
sg36
I1
sg140
(lp279
(i__main__
CInspection
p280
(dp281
g144
I0
sg145
I01
sg146
F1.0
sbasg147
I0
sg148
F0.0
sg149
I0
sg22
I1
sg150
I0
sg151
F0.0
sba(i__main__
CrackData
p282
(dp283
g32
I1
sg33
F5.615
sg133
I0
sg2
I0
sg34
F1.7254415881904066
sg134
I0
sg135
I2
sg136
I1
sg137
I00
sg138
I0
sg139
I0
sg36
I1
sg140
(lp284
(i__main__
CInspection
p285
(dp286
g144
I0
sg145
I01
sg146
F1.0
sbasg147
I0
sg148
F0.0
sg149
I0
sg22
I1
sg150
I0
sg151
F0.0
sba(i__main__
CrackData
p287
(dp288
g32
I1
sg33
F5.615
sg133
I0
sg2
I0
sg34
F1.7254415881904066
sg134
I0
sg135
I2
sg136
I1
sg137
I00
sg138
I0
sg139
I0
sg36
I1
sg140
(lp289
(i__main__
CInspection
p290
(dp291
g144
I0
sg145
I01
sg146
F1.0
sbasg147
I0
sg148
F0.0
sg149
I0
sg22
I1
sg150
I0
sg151
F0.0
sba(i__main__
CrackData
p292
(dp293
g32
I1
sg33
F5.615
sg133
I0
sg2
I0
sg34
F1.7254415881904066
sg134
I0
sg135
I2
sg136
I1
sg137
I00
sg138
I0
sg139
I0
sg36
I1
sg140
(lp294
(i__main__
CInspection
p295
(dp296
g144
I0
sg145
I01
sg146
F1.0
sbasg147
I0
sg148
F0.0
sg149
I0
sg22
I1
sg150
I0
sg151
F0.0
sba(i__main__
CrackData
p297
(dp298
g32
I1
sg33
F6.06
sg133
I0
sg2
I0
sg34
F1.801709800081223
sg134
I0
sg135
I2
sg136
I1
sg137
I00
sg138
I0
sg139
I0
sg36
I0
sg140
(lp299
(i__main__
CInspection
p300
(dp301
g144
I0
sg145
I01
sg146
F0.0
sbasg147
I0
sg148
F0.0
sg149
I0
sg22
I1
sg150
I0
sg151
F0.0
sba(i__main__
CrackData
p302
(dp303
g32
I1
sg33
F6.06
sg133
I0
sg2
I0
sg34
F1.801709800081223
sg134
I0
sg135
I2
sg136
I1
sg137
I00
sg138
I0
sg139
I0
sg36
I0
sg140
(lp304
(i__main__
CInspection
p305
(dp306
g144
I0
sg145
I01
sg146
F0.0
sbasg147
I0
sg148
F0.0
sg149
I0
sg22
I1
sg150
I0
sg151
F0.0
sba(i__main__
CrackData
p307
(dp308
g32
I1
sg33
F6.06
sg133
I0
sg2
I0
sg34
F1.801709800081223
sg134
I0
sg135
I2
sg136
I1
sg137
I00
sg138
I0
sg139
I0
sg36
I0
sg140
(lp309
(i__main__
CInspection
p310
(dp311
g144
I0
sg145
I01
sg146
F0.0
sbasg147
I0
sg148
F0.0
sg149
I0
sg22
I1
sg150
I0
sg151
F0.0
sba(i__main__
CrackData
p312
(dp313
g32
I1
sg33
F6.06
sg133
I0
sg2
I0
sg34
F1.801709800081223
sg134
I0
sg135
I2
sg136
I1
sg137
I00
sg138
I0
sg139
I0
sg36
I1
sg140
(lp314
(i__main__
CInspection
p315
(dp316
g144
I0
sg145
I01
sg146
F1.0
sbasg147
I0
sg148
F0.0
sg149
I0
sg22
I1
sg150
I0
sg151
F0.0
sba(i__main__
CrackData
p317
(dp318
g32
I1
sg33
F6.06
sg133
I0
sg2
I0
sg34
F1.801709800081223
sg134
I0
sg135
I2
sg136
I1
sg137
I00
sg138
I0
sg139
I0
sg36
I1
sg140
(lp319
(i__main__
CInspection
p320
(dp321
g144
I0
sg145
I01
sg146
F1.0
sbasg147
I0
sg148
F0.0
sg149
I0
sg22
I1
sg150
I0
sg151
F0.0
sba(i__main__
CrackData
p322
(dp323
g32
I1
sg33
F6.06
sg133
I0
sg2
I0
sg34
F1.801709800081223
sg134
I0
sg135
I2
sg136
I1
sg137
I00
sg138
I0
sg139
I0
sg36
I1
sg140
(lp324
(i__main__
CInspection
p325
(dp326
g144
I0
sg145
I01
sg146
F1.0
sbasg147
I0
sg148
F0.0
sg149
I0
sg22
I1
sg150
I0
sg151
F0.0
sba(i__main__
CrackData
p327
(dp328
g32
I1
sg33
F6.06
sg133
I0
sg2
I0
sg34
F1.801709800081223
sg134
I0
sg135
I2
sg136
I1
sg137
I00
sg138
I0
sg139
I0
sg36
I1
sg140
(lp329
(i__main__
CInspection
p330
(dp331
g144
I0
sg145
I01
sg146
F1.0
sbasg147
I0
sg148
F0.0
sg149
I0
sg22
I1
sg150
I0
sg151
F0.0
sba(i__main__
CrackData
p332
(dp333
g32
I1
sg33
F6.06
sg133
I0
sg2
I0
sg34
F1.801709800081223
sg134
I0
sg135
I2
sg136
I1
sg137
I00
sg138
I0
sg139
I0
sg36
I1
sg140
(lp334
(i__main__
CInspection
p335
(dp336
g144
I0
sg145
I01
sg146
F1.0
sbasg147
I0
sg148
F0.0
sg149
I0
sg22
I1
sg150
I0
sg151
F0.0
sba(i__main__
CrackData
p337
(dp338
g32
I1
sg33
F6.505
sg133
I0
sg2
I0
sg34
F1.8725711119644686
sg134
I0
sg135
I2
sg136
I1
sg137
I00
sg138
I0
sg139
I0
sg36
I0
sg140
(lp339
(i__main__
CInspection
p340
(dp341
g144
I0
sg145
I01
sg146
F0.0
sbasg147
I0
sg148
F0.0
sg149
I0
sg22
I1
sg150
I0
sg151
F0.0
sba(i__main__
CrackData
p342
(dp343
g32
I1
sg33
F6.505
sg133
I0
sg2
I0
sg34
F1.8725711119644686
sg134
I0
sg135
I2
sg136
I1
sg137
I00
sg138
I0
sg139
I0
sg36
I0
sg140
(lp344
(i__main__
CInspection
p345
(dp346
g144
I0
sg145
I01
sg146
F0.0
sbasg147
I0
sg148
F0.0
sg149
I0
sg22
I1
sg150
I0
sg151
F0.0
sba(i__main__
CrackData
p347
(dp348
g32
I1
sg33
F6.505
sg133
I0
sg2
I0
sg34
F1.8725711119644686
sg134
I0
sg135
I2
sg136
I1
sg137
I00
sg138
I0
sg139
I0
sg36
I0
sg140
(lp349
(i__main__
CInspection
p350
(dp351
g144
I0
sg145
I01
sg146
F0.0
sbasg147
I0
sg148
F0.0
sg149
I0
sg22
I1
sg150
I0
sg151
F0.0
sba(i__main__
CrackData
p352
(dp353
g32
I1
sg33
F6.505
sg133
I0
sg2
I0
sg34
F1.8725711119644686
sg134
I0
sg135
I2
sg136
I1
sg137
I00
sg138
I0
sg139
I0
sg36
I0
sg140
(lp354
(i__main__
CInspection
p355
(dp356
g144
I0
sg145
I01
sg146
F0.0
sbasg147
I0
sg148
F0.0
sg149
I0
sg22
I1
sg150
I0
sg151
F0.0
sba(i__main__
CrackData
p357
(dp358
g32
I1
sg33
F6.505
sg133
I0
sg2
I0
sg34
F1.8725711119644686
sg134
I0
sg135
I2
sg136
I1
sg137
I00
sg138
I0
sg139
I0
sg36
I0
sg140
(lp359
(i__main__
CInspection
p360
(dp361
g144
I0
sg145
I01
sg146
F0.0
sbasg147
I0
sg148
F0.0
sg149
I0
sg22
I1
sg150
I0
sg151
F0.0
sba(i__main__
CrackData
p362
(dp363
g32
I1
sg33
F6.505
sg133
I0
sg2
I0
sg34
F1.8725711119644686
sg134
I0
sg135
I2
sg136
I1
sg137
I00
sg138
I0
sg139
I0
sg36
I0
sg140
(lp364
(i__main__
CInspection
p365
(dp366
g144
I0
sg145
I01
sg146
F0.0
sbasg147
I0
sg148
F0.0
sg149
I0
sg22
I1
sg150
I0
sg151
F0.0
sba(i__main__
CrackData
p367
(dp368
g32
I1
sg33
F6.505
sg133
I0
sg2
I0
sg34
F1.8725711119644686
sg134
I0
sg135
I2
sg136
I1
sg137
I00
sg138
I0
sg139
I0
sg36
I0
sg140
(lp369
(i__main__
CInspection
p370
(dp371
g144
I0
sg145
I01
sg146
F0.0
sbasg147
I0
sg148
F0.0
sg149
I0
sg22
I1
sg150
I0
sg151
F0.0
sba(i__main__
CrackData
p372
(dp373
g32
I1
sg33
F6.505
sg133
I0
sg2
I0
sg34
F1.8725711119644686
sg134
I0
sg135
I2
sg136
I1
sg137
I00
sg138
I0
sg139
I0
sg36
I1
sg140
(lp374
(i__main__
CInspection
p375
(dp376
g144
I0
sg145
I01
sg146
F1.0
sbasg147
I0
sg148
F0.0
sg149
I0
sg22
I1
sg150
I0
sg151
F0.0
sba(i__main__
CrackData
p377
(dp378
g32
I1
sg33
F6.505
sg133
I0
sg2
I0
sg34
F1.8725711119644686
sg134
I0
sg135
I2
sg136
I1
sg137
I00
sg138
I0
sg139
I0
sg36
I1
sg140
(lp379
(i__main__
CInspection
p380
(dp381
g144
I0
sg145
I01
sg146
F1.0
sbasg147
I0
sg148
F0.0
sg149
I0
sg22
I1
sg150
I0
sg151
F0.0
sba(i__main__
CrackData
p382
(dp383
g32
I1
sg33
F6.505
sg133
I0
sg2
I0
sg34
F1.8725711119644686
sg134
I0
sg135
I2
sg136
I1
sg137
I00
sg138
I0
sg139
I0
sg36
I1
sg140
(lp384
(i__main__
CInspection
p385
(dp386
g144
I0
sg145
I01
sg146
F1.0
sbasg147
I0
sg148
F0.0
sg149
I0
sg22
I1
sg150
I0
sg151
F0.0
sba(i__main__
CrackData
p387
(dp388
g32
I1
sg33
F6.95
sg133
I0
sg2
I0
sg34
F1.9387416595767009
sg134
I0
sg135
I2
sg136
I1
sg137
I00
sg138
I0
sg139
I0
sg36
I1
sg140
(lp389
(i__main__
CInspection
p390
(dp391
g144
I0
sg145
I01
sg146
F1.0
sbasg147
I0
sg148
F0.0
sg149
I0
sg22
I1
sg150
I0
sg151
F0.0
sba(i__main__
CrackData
p392
(dp393
g32
I1
sg33
F6.95
sg133
I0
sg2
I0
sg34
F1.9387416595767009
sg134
I0
sg135
I2
sg136
I1
sg137
I00
sg138
I0
sg139
I0
sg36
I1
sg140
(lp394
(i__main__
CInspection
p395
(dp396
g144
I0
sg145
I01
sg146
F1.0
sbasg147
I0
sg148
F0.0
sg149
I0
sg22
I1
sg150
I0
sg151
F0.0
sba(i__main__
CrackData
p397
(dp398
g32
I1
sg33
F6.95
sg133
I0
sg2
I0
sg34
F1.9387416595767009
sg134
I0
sg135
I2
sg136
I1
sg137
I00
sg138
I0
sg139
I0
sg36
I1
sg140
(lp399
(i__main__
CInspection
p400
(dp401
g144
I0
sg145
I01
sg146
F1.0
sbasg147
I0
sg148
F0.0
sg149
I0
sg22
I1
sg150
I0
sg151
F0.0
sba(i__main__
CrackData
p402
(dp403
g32
I1
sg33
F6.95
sg133
I0
sg2
I0
sg34
F1.9387416595767009
sg134
I0
sg135
I2
sg136
I1
sg137
I00
sg138
I0
sg139
I0
sg36
I1
sg140
(lp404
(i__main__
CInspection
p405
(dp406
g144
I0
sg145
I01
sg146
F1.0
sbasg147
I0
sg148
F0.0
sg149
I0
sg22
I1
sg150
I0
sg151
F0.0
sba(i__main__
CrackData
p407
(dp408
g32
I1
sg33
F6.95
sg133
I0
sg2
I0
sg34
F1.9387416595767009
sg134
I0
sg135
I2
sg136
I1
sg137
I00
sg138
I0
sg139
I0
sg36
I0
sg140
(lp409
(i__main__
CInspection
p410
(dp411
g144
I0
sg145
I01
sg146
F0.0
sbasg147
I0
sg148
F0.0
sg149
I0
sg22
I1
sg150
I0
sg151
F0.0
sba(i__main__
CrackData
p412
(dp413
g32
I1
sg33
F7.395
sg133
I0
sg2
I0
sg34
F2.000804096162763
sg134
I0
sg135
I2
sg136
I1
sg137
I00
sg138
I0
sg139
I0
sg36
I0
sg140
(lp414
(i__main__
CInspection
p415
(dp416
g144
I0
sg145
I01
sg146
F0.0
sbasg147
I0
sg148
F0.0
sg149
I0
sg22
I1
sg150
I0
sg151
F0.0
sba(i__main__
CrackData
p417
(dp418
g32
I1
sg33
F7.395
sg133
I0
sg2
I0
sg34
F2.000804096162763
sg134
I0
sg135
I2
sg136
I1
sg137
I00
sg138
I0
sg139
I0
sg36
I0
sg140
(lp419
(i__main__
CInspection
p420
(dp421
g144
I0
sg145
I01
sg146
F0.0
sbasg147
I0
sg148
F0.0
sg149
I0
sg22
I1
sg150
I0
sg151
F0.0
sba(i__main__
CrackData
p422
(dp423
g32
I1
sg33
F7.395
sg133
I0
sg2
I0
sg34
F2.000804096162763
sg134
I0
sg135
I2
sg136
I1
sg137
I00
sg138
I0
sg139
I0
sg36
I1
sg140
(lp424
(i__main__
CInspection
p425
(dp426
g144
I0
sg145
I01
sg146
F1.0
sbasg147
I0
sg148
F0.0
sg149
I0
sg22
I1
sg150
I0
sg151
F0.0
sba(i__main__
CrackData
p427
(dp428
g32
I1
sg33
F7.84
sg133
I0
sg2
I0
sg34
F2.0592388343623163
sg134
I0
sg135
I2
sg136
I1
sg137
I00
sg138
I0
sg139
I0
sg36
I0
sg140
(lp429
(i__main__
CInspection
p430
(dp431
g144
I0
sg145
I01
sg146
F0.0
sbasg147
I0
sg148
F0.0
sg149
I0
sg22
I1
sg150
I0
sg151
F0.0
sba(i__main__
CrackData
p432
(dp433
g32
I1
sg33
F7.84
sg133
I0
sg2
I0
sg34
F2.0592388343623163
sg134
I0
sg135
I2
sg136
I1
sg137
I00
sg138
I0
sg139
I0
sg36
I1
sg140
(lp434
(i__main__
CInspection
p435
(dp436
g144
I0
sg145
I01
sg146
F1.0
sbasg147
I0
sg148
F0.0
sg149
I0
sg22
I1
sg150
I0
sg151
F0.0
sba(i__main__
CrackData
p437
(dp438
g32
I1
sg33
F7.84
sg133
I0
sg2
I0
sg34
F2.0592388343623163
sg134
I0
sg135
I2
sg136
I1
sg137
I00
sg138
I0
sg139
I0
sg36
I1
sg140
(lp439
(i__main__
CInspection
p440
(dp441
g144
I0
sg145
I01
sg146
F1.0
sbasg147
I0
sg148
F0.0
sg149
I0
sg22
I1
sg150
I0
sg151
F0.0
sba(i__main__
CrackData
p442
(dp443
g32
I1
sg33
F8.285
sg133
I0
sg2
I0
sg34
F2.1144466508785262
sg134
I0
sg135
I2
sg136
I1
sg137
I00
sg138
I0
sg139
I0
sg36
I1
sg140
(lp444
(i__main__
CInspection
p445
(dp446
g144
I0
sg145
I01
sg146
F1.0
sbasg147
I0
sg148
F0.0
sg149
I0
sg22
I1
sg150
I0
sg151
F0.0
sba(i__main__
CrackData
p447
(dp448
g32
I1
sg33
F8.285
sg133
I0
sg2
I0
sg34
F2.1144466508785262
sg134
I0
sg135
I2
sg136
I1
sg137
I00
sg138
I0
sg139
I0
sg36
I1
sg140
(lp449
(i__main__
CInspection
p450
(dp451
g144
I0
sg145
I01
sg146
F1.0
sbasg147
I0
sg148
F0.0
sg149
I0
sg22
I1
sg150
I0
sg151
F0.0
sba(i__main__
CrackData
p452
(dp453
g32
I1
sg33
F8.285
sg133
I0
sg2
I0
sg34
F2.1144466508785262
sg134
I0
sg135
I2
sg136
I1
sg137
I00
sg138
I0
sg139
I0
sg36
I1
sg140
(lp454
(i__main__
CInspection
p455
(dp456
g144
I0
sg145
I01
sg146
F1.0
sbasg147
I0
sg148
F0.0
sg149
I0
sg22
I1
sg150
I0
sg151
F0.0
sba(i__main__
CrackData
p457
(dp458
g32
I1
sg33
F8.73
sg133
I0
sg2
I0
sg34
F2.166765369851511
sg134
I0
sg135
I2
sg136
I1
sg137
I00
sg138
I0
sg139
I0
sg36
I1
sg140
(lp459
(i__main__
CInspection
p460
(dp461
g144
I0
sg145
I01
sg146
F1.0
sbasg147
I0
sg148
F0.0
sg149
I0
sg22
I1
sg150
I0
sg151
F0.0
sba(i__main__
CrackData
p462
(dp463
g32
I1
sg33
F8.73
sg133
I0
sg2
I0
sg34
F2.166765369851511
sg134
I0
sg135
I2
sg136
I1
sg137
I00
sg138
I0
sg139
I0
sg36
I1
sg140
(lp464
(i__main__
CInspection
p465
(dp466
g144
I0
sg145
I01
sg146
F1.0
sbasg147
I0
sg148
F0.0
sg149
I0
sg22
I1
sg150
I0
sg151
F0.0
sba(i__main__
CrackData
p467
(dp468
g32
I1
sg33
F8.73
sg133
I0
sg2
I0
sg34
F2.166765369851511
sg134
I0
sg135
I2
sg136
I1
sg137
I00
sg138
I0
sg139
I0
sg36
I1
sg140
(lp469
(i__main__
CInspection
p470
(dp471
g144
I0
sg145
I01
sg146
F1.0
sbasg147
I0
sg148
F0.0
sg149
I0
sg22
I1
sg150
I0
sg151
F0.0
sba(i__main__
CrackData
p472
(dp473
g32
I1
sg33
F8.73
sg133
I0
sg2
I0
sg34
F2.166765369851511
sg134
I0
sg135
I2
sg136
I1
sg137
I00
sg138
I0
sg139
I0
sg36
I1
sg140
(lp474
(i__main__
CInspection
p475
(dp476
g144
I0
sg145
I01
sg146
F1.0
sbasg147
I0
sg148
F0.0
sg149
I0
sg22
I1
sg150
I0
sg151
F0.0
sba(i__main__
CrackData
p477
(dp478
g32
I1
sg33
F8.73
sg133
I0
sg2
I0
sg34
F2.166765369851511
sg134
I0
sg135
I2
sg136
I1
sg137
I00
sg138
I0
sg139
I0
sg36
I1
sg140
(lp479
(i__main__
CInspection
p480
(dp481
g144
I0
sg145
I01
sg146
F1.0
sbasg147
I0
sg148
F0.0
sg149
I0
sg22
I1
sg150
I0
sg151
F0.0
sba(i__main__
CrackData
p482
(dp483
g32
I1
sg33
F8.73
sg133
I0
sg2
I0
sg34
F2.166765369851511
sg134
I0
sg135
I2
sg136
I1
sg137
I00
sg138
I0
sg139
I0
sg36
I0
sg140
(lp484
(i__main__
CInspection
p485
(dp486
g144
I0
sg145
I01
sg146
F0.0
sbasg147
I0
sg148
F0.0
sg149
I0
sg22
I1
sg150
I0
sg151
F0.0
sba(i__main__
CrackData
p487
(dp488
g32
I1
sg33
F9.62
sg133
I0
sg2
I0
sg34
F2.263844264677615
sg134
I0
sg135
I2
sg136
I1
sg137
I00
sg138
I0
sg139
I0
sg36
I1
sg140
(lp489
(i__main__
CInspection
p490
(dp491
g144
I0
sg145
I01
sg146
F1.0
sbasg147
I0
sg148
F0.0
sg149
I0
sg22
I1
sg150
I0
sg151
F0.0
sba(i__main__
CrackData
p492
(dp493
g32
I1
sg33
F9.62
sg133
I0
sg2
I0
sg34
F2.263844264677615
sg134
I0
sg135
I2
sg136
I1
sg137
I00
sg138
I0
sg139
I0
sg36
I1
sg140
(lp494
(i__main__
CInspection
p495
(dp496
g144
I0
sg145
I01
sg146
F1.0
sbasg147
I0
sg148
F0.0
sg149
I0
sg22
I1
sg150
I0
sg151
F0.0
sba(i__main__
CrackData
p497
(dp498
g32
I1
sg33
F9.62
sg133
I0
sg2
I0
sg34
F2.263844264677615
sg134
I0
sg135
I2
sg136
I1
sg137
I00
sg138
I0
sg139
I0
sg36
I1
sg140
(lp499
(i__main__
CInspection
p500
(dp501
g144
I0
sg145
I01
sg146
F1.0
sbasg147
I0
sg148
F0.0
sg149
I0
sg22
I1
sg150
I0
sg151
F0.0
sba(i__main__
CrackData
p502
(dp503
g32
I1
sg33
F9.62
sg133
I0
sg2
I0
sg34
F2.263844264677615
sg134
I0
sg135
I2
sg136
I1
sg137
I00
sg138
I0
sg139
I0
sg36
I1
sg140
(lp504
(i__main__
CInspection
p505
(dp506
g144
I0
sg145
I01
sg146
F1.0
sbasg147
I0
sg148
F0.0
sg149
I0
sg22
I1
sg150
I0
sg151
F0.0
sba(i__main__
CrackData
p507
(dp508
g32
I1
sg33
F10.065
sg133
I0
sg2
I0
sg34
F2.309064059091755
sg134
I0
sg135
I2
sg136
I1
sg137
I00
sg138
I0
sg139
I0
sg36
I1
sg140
(lp509
(i__main__
CInspection
p510
(dp511
g144
I0
sg145
I01
sg146
F1.0
sbasg147
I0
sg148
F0.0
sg149
I0
sg22
I1
sg150
I0
sg151
F0.0
sba(i__main__
CrackData
p512
(dp513
g32
I1
sg33
F10.51
sg133
I0
sg2
I0
sg34
F2.3523271848888596
sg134
I0
sg135
I2
sg136
I1
sg137
I00
sg138
I0
sg139
I0
sg36
I1
sg140
(lp514
(i__main__
CInspection
p515
(dp516
g144
I0
sg145
I01
sg146
F1.0
sbasg147
I0
sg148
F0.0
sg149
I0
sg22
I1
sg150
I0
sg151
F0.0
sba(i__main__
CrackData
p517
(dp518
g32
I1
sg33
F10.51
sg133
I0
sg2
I0
sg34
F2.3523271848888596
sg134
I0
sg135
I2
sg136
I1
sg137
I00
sg138
I0
sg139
I0
sg36
I1
sg140
(lp519
(i__main__
CInspection
p520
(dp521
g144
I0
sg145
I01
sg146
F1.0
sbasg147
I0
sg148
F0.0
sg149
I0
sg22
I1
sg150
I0
sg151
F0.0
sba(i__main__
CrackData
p522
(dp523
g32
I1
sg33
F10.51
sg133
I0
sg2
I0
sg34
F2.3523271848888596
sg134
I0
sg135
I2
sg136
I1
sg137
I00
sg138
I0
sg139
I0
sg36
I1
sg140
(lp524
(i__main__
CInspection
p525
(dp526
g144
I0
sg145
I01
sg146
F1.0
sbasg147
I0
sg148
F0.0
sg149
I0
sg22
I1
sg150
I0
sg151
F0.0
sba(i__main__
CrackData
p527
(dp528
g32
I1
sg33
F10.688
sg133
I0
sg2
I0
sg34
F2.36912161679429
sg134
I0
sg135
I2
sg136
I1
sg137
I00
sg138
I0
sg139
I0
sg36
I1
sg140
(lp529
(i__main__
CInspection
p530
(dp531
g144
I0
sg145
I01
sg146
F1.0
sbasg147
I0
sg148
F0.0
sg149
I0
sg22
I1
sg150
I0
sg151
F0.0
sba(i__main__
CrackData
p532
(dp533
g32
I1
sg33
F10.955
sg133
I0
sg2
I0
sg34
F2.3937959730474296
sg134
I0
sg135
I2
sg136
I1
sg137
I00
sg138
I0
sg139
I0
sg36
I1
sg140
(lp534
(i__main__
CInspection
p535
(dp536
g144
I0
sg145
I01
sg146
F1.0
sbasg147
I0
sg148
F0.0
sg149
I0
sg22
I1
sg150
I0
sg151
F0.0
sba(i__main__
CrackData
p537
(dp538
g32
I1
sg33
F10.955
sg133
I0
sg2
I0
sg34
F2.3937959730474296
sg134
I0
sg135
I2
sg136
I1
sg137
I00
sg138
I0
sg139
I0
sg36
I1
sg140
(lp539
(i__main__
CInspection
p540
(dp541
g144
I0
sg145
I01
sg146
F1.0
sbasg147
I0
sg148
F0.0
sg149
I0
sg22
I1
sg150
I0
sg151
F0.0
sba(i__main__
CrackData
p542
(dp543
g32
I1
sg33
F11.934
sg133
I0
sg2
I0
sg34
F2.47939146909989
sg134
I0
sg135
I2
sg136
I1
sg137
I00
sg138
I0
sg139
I0
sg36
I1
sg140
(lp544
(i__main__
CInspection
p545
(dp546
g144
I0
sg145
I01
sg146
F1.0
sbasg147
I0
sg148
F0.0
sg149
I0
sg22
I1
sg150
I0
sg151
F0.0
sba(i__main__
CrackData
p547
(dp548
g32
I1
sg33
F11.934
sg133
I0
sg2
I0
sg34
F2.47939146909989
sg134
I0
sg135
I2
sg136
I1
sg137
I00
sg138
I0
sg139
I0
sg36
I1
sg140
(lp549
(i__main__
CInspection
p550
(dp551
g144
I0
sg145
I01
sg146
F1.0
sbasg147
I0
sg148
F0.0
sg149
I0
sg22
I1
sg150
I0
sg151
F0.0
sba(i__main__
CrackData
p552
(dp553
g32
I1
sg33
F11.934
sg133
I0
sg2
I0
sg34
F2.47939146909989
sg134
I0
sg135
I2
sg136
I1
sg137
I00
sg138
I0
sg139
I0
sg36
I1
sg140
(lp554
(i__main__
CInspection
p555
(dp556
g144
I0
sg145
I01
sg146
F1.0
sbasg147
I0
sg148
F0.0
sg149
I0
sg22
I1
sg150
I0
sg151
F0.0
sba(i__main__
CrackData
p557
(dp558
g32
I1
sg33
F11.934
sg133
I0
sg2
I0
sg34
F2.47939146909989
sg134
I0
sg135
I2
sg136
I1
sg137
I00
sg138
I0
sg139
I0
sg36
I1
sg140
(lp559
(i__main__
CInspection
p560
(dp561
g144
I0
sg145
I01
sg146
F1.0
sbasg147
I0
sg148
F0.0
sg149
I0
sg22
I1
sg150
I0
sg151
F0.0
sba(i__main__
CrackData
p562
(dp563
g32
I1
sg33
F11.934
sg133
I0
sg2
I0
sg34
F2.47939146909989
sg134
I0
sg135
I2
sg136
I1
sg137
I00
sg138
I0
sg139
I0
sg36
I1
sg140
(lp564
(i__main__
CInspection
p565
(dp566
g144
I0
sg145
I01
sg146
F1.0
sbasg147
I0
sg148
F0.0
sg149
I0
sg22
I1
sg150
I0
sg151
F0.0
sba(i__main__
CrackData
p567
(dp568
g32
I1
sg33
F11.934
sg133
I0
sg2
I0
sg34
F2.47939146909989
sg134
I0
sg135
I2
sg136
I1
sg137
I00
sg138
I0
sg139
I0
sg36
I1
sg140
(lp569
(i__main__
CInspection
p570
(dp571
g144
I0
sg145
I01
sg146
F1.0
sbasg147
I0
sg148
F0.0
sg149
I0
sg22
I1
sg150
I0
sg151
F0.0
sba(i__main__
CrackData
p572
(dp573
g32
I1
sg33
F11.934
sg133
I0
sg2
I0
sg34
F2.47939146909989
sg134
I0
sg135
I2
sg136
I1
sg137
I00
sg138
I0
sg139
I0
sg36
I1
sg140
(lp574
(i__main__
CInspection
p575
(dp576
g144
I0
sg145
I01
sg146
F1.0
sbasg147
I0
sg148
F0.0
sg149
I0
sg22
I1
sg150
I0
sg151
F0.0
sba(i__main__
CrackData
p577
(dp578
g32
I1
sg33
F12.379
sg133
I0
sg2
I0
sg34
F2.5160014885496733
sg134
I0
sg135
I2
sg136
I1
sg137
I00
sg138
I0
sg139
I0
sg36
I1
sg140
(lp579
(i__main__
CInspection
p580
(dp581
g144
I0
sg145
I01
sg146
F1.0
sbasg147
I0
sg148
F0.0
sg149
I0
sg22
I1
sg150
I0
sg151
F0.0
sba(i__main__
CrackData
p582
(dp583
g32
I1
sg33
F12.468
sg133
I0
sg2
I0
sg34
F2.5231653619050904
sg134
I0
sg135
I2
sg136
I1
sg137
I00
sg138
I0
sg139
I0
sg36
I1
sg140
(lp584
(i__main__
CInspection
p585
(dp586
g144
I0
sg145
I01
sg146
F1.0
sbasg147
I0
sg148
F0.0
sg149
I0
sg22
I1
sg150
I0
sg151
F0.0
sba(i__main__
CrackData
p587
(dp588
g32
I1
sg33
F12.468
sg133
I0
sg2
I0
sg34
F2.5231653619050904
sg134
I0
sg135
I2
sg136
I1
sg137
I00
sg138
I0
sg139
I0
sg36
I1
sg140
(lp589
(i__main__
CInspection
p590
(dp591
g144
I0
sg145
I01
sg146
F1.0
sbasg147
I0
sg148
F0.0
sg149
I0
sg22
I1
sg150
I0
sg151
F0.0
sba(i__main__
CrackData
p592
(dp593
g32
I1
sg33
F12.468
sg133
I0
sg2
I0
sg34
F2.5231653619050904
sg134
I0
sg135
I2
sg136
I1
sg137
I00
sg138
I0
sg139
I0
sg36
I1
sg140
(lp594
(i__main__
CInspection
p595
(dp596
g144
I0
sg145
I01
sg146
F1.0
sbasg147
I0
sg148
F0.0
sg149
I0
sg22
I1
sg150
I0
sg151
F0.0
sba(i__main__
CrackData
p597
(dp598
g32
I1
sg33
F12.557
sg133
I0
sg2
I0
sg34
F2.530278279006827
sg134
I0
sg135
I2
sg136
I1
sg137
I00
sg138
I0
sg139
I0
sg36
I1
sg140
(lp599
(i__main__
CInspection
p600
(dp601
g144
I0
sg145
I01
sg146
F1.0
sbasg147
I0
sg148
F0.0
sg149
I0
sg22
I1
sg150
I0
sg151
F0.0
sba(i__main__
CrackData
p602
(dp603
g32
I1
sg33
F12.557
sg133
I0
sg2
I0
sg34
F2.530278279006827
sg134
I0
sg135
I2
sg136
I1
sg137
I00
sg138
I0
sg139
I0
sg36
I1
sg140
(lp604
(i__main__
CInspection
p605
(dp606
g144
I0
sg145
I01
sg146
F1.0
sbasg147
I0
sg148
F0.0
sg149
I0
sg22
I1
sg150
I0
sg151
F0.0
sba(i__main__
CrackData
p607
(dp608
g32
I1
sg33
F13.18
sg133
I0
sg2
I0
sg34
F2.578700529074361
sg134
I0
sg135
I2
sg136
I1
sg137
I00
sg138
I0
sg139
I0
sg36
I1
sg140
(lp609
(i__main__
CInspection
p610
(dp611
g144
I0
sg145
I01
sg146
F1.0
sbasg147
I0
sg148
F0.0
sg149
I0
sg22
I1
sg150
I0
sg151
F0.0
sba(i__main__
CrackData
p612
(dp613
g32
I1
sg33
F13.625
sg133
I0
sg2
I0
sg34
F2.6119063405493077
sg134
I0
sg135
I2
sg136
I1
sg137
I00
sg138
I0
sg139
I0
sg36
I1
sg140
(lp614
(i__main__
CInspection
p615
(dp616
g144
I0
sg145
I01
sg146
F1.0
sbasg147
I0
sg148
F0.0
sg149
I0
sg22
I1
sg150
I0
sg151
F0.0
sba(i__main__
CrackData
p617
(dp618
g32
I1
sg33
F13.625
sg133
I0
sg2
I0
sg34
F2.6119063405493077
sg134
I0
sg135
I2
sg136
I1
sg137
I00
sg138
I0
sg139
I0
sg36
I1
sg140
(lp619
(i__main__
CInspection
p620
(dp621
g144
I0
sg145
I01
sg146
F1.0
sbasg147
I0
sg148
F0.0
sg149
I0
sg22
I1
sg150
I0
sg151
F0.0
sba(i__main__
CrackData
p622
(dp623
g32
I1
sg33
F13.714
sg133
I0
sg2
I0
sg34
F2.618417208862173
sg134
I0
sg135
I2
sg136
I1
sg137
I00
sg138
I0
sg139
I0
sg36
I1
sg140
(lp624
(i__main__
CInspection
p625
(dp626
g144
I0
sg145
I01
sg146
F1.0
sbasg147
I0
sg148
F0.0
sg149
I0
sg22
I1
sg150
I0
sg151
F0.0
sba(i__main__
CrackData
p627
(dp628
g32
I1
sg33
F13.803
sg133
I0
sg2
I0
sg34
F2.6248859598414414
sg134
I0
sg135
I2
sg136
I1
sg137
I00
sg138
I0
sg139
I0
sg36
I1
sg140
(lp629
(i__main__
CInspection
p630
(dp631
g144
I0
sg145
I01
sg146
F1.0
sbasg147
I0
sg148
F0.0
sg149
I0
sg22
I1
sg150
I0
sg151
F0.0
sba(i__main__
CrackData
p632
(dp633
g32
I1
sg33
F13.803
sg133
I0
sg2
I0
sg34
F2.6248859598414414
sg134
I0
sg135
I2
sg136
I1
sg137
I00
sg138
I0
sg139
I0
sg36
I1
sg140
(lp634
(i__main__
CInspection
p635
(dp636
g144
I0
sg145
I01
sg146
F1.0
sbasg147
I0
sg148
F0.0
sg149
I0
sg22
I1
sg150
I0
sg151
F0.0
sba(i__main__
CrackData
p637
(dp638
g32
I1
sg33
F13.803
sg133
I0
sg2
I0
sg34
F2.6248859598414414
sg134
I0
sg135
I2
sg136
I1
sg137
I00
sg138
I0
sg139
I0
sg36
I1
sg140
(lp639
(i__main__
CInspection
p640
(dp641
g144
I0
sg145
I01
sg146
F1.0
sbasg147
I0
sg148
F0.0
sg149
I0
sg22
I1
sg150
I0
sg151
F0.0
sba(i__main__
CrackData
p642
(dp643
g32
I1
sg33
F13.803
sg133
I0
sg2
I0
sg34
F2.6248859598414414
sg134
I0
sg135
I2
sg136
I1
sg137
I00
sg138
I0
sg139
I0
sg36
I1
sg140
(lp644
(i__main__
CInspection
p645
(dp646
g144
I0
sg145
I01
sg146
F1.0
sbasg147
I0
sg148
F0.0
sg149
I0
sg22
I1
sg150
I0
sg151
F0.0
sba(i__main__
CrackData
p647
(dp648
g32
I1
sg33
F14.07
sg133
I0
sg2
I0
sg34
F2.644044871126298
sg134
I0
sg135
I2
sg136
I1
sg137
I00
sg138
I0
sg139
I0
sg36
I1
sg140
(lp649
(i__main__
CInspection
p650
(dp651
g144
I0
sg145
I01
sg146
F1.0
sbasg147
I0
sg148
F0.0
sg149
I0
sg22
I1
sg150
I0
sg151
F0.0
sba(i__main__
CrackData
p652
(dp653
g32
I1
sg33
F14.96
sg133
I0
sg2
I0
sg34
F2.7053799725463312
sg134
I0
sg135
I2
sg136
I1
sg137
I00
sg138
I0
sg139
I0
sg36
I1
sg140
(lp654
(i__main__
CInspection
p655
(dp656
g144
I0
sg145
I01
sg146
F1.0
sbasg147
I0
sg148
F0.0
sg149
I0
sg22
I1
sg150
I0
sg151
F0.0
sba(i__main__
CrackData
p657
(dp658
g32
I1
sg33
F15.1736
sg133
I0
sg2
I0
sg34
F2.7195570756879754
sg134
I0
sg135
I2
sg136
I1
sg137
I00
sg138
I0
sg139
I0
sg36
I1
sg140
(lp659
(i__main__
CInspection
p660
(dp661
g144
I0
sg145
I01
sg146
F1.0
sbasg147
I0
sg148
F0.0
sg149
I0
sg22
I1
sg150
I0
sg151
F0.0
sba(i__main__
CrackData
p662
(dp663
g32
I1
sg33
F15.405
sg133
I0
sg2
I0
sg34
F2.734692132048631
sg134
I0
sg135
I2
sg136
I1
sg137
I00
sg138
I0
sg139
I0
sg36
I1
sg140
(lp664
(i__main__
CInspection
p665
(dp666
g144
I0
sg145
I01
sg146
F1.0
sbasg147
I0
sg148
F0.0
sg149
I0
sg22
I1
sg150
I0
sg151
F0.0
sba(i__main__
CrackData
p667
(dp668
g32
I1
sg33
F15.939
sg133
I0
sg2
I0
sg34
F2.7687689361369157
sg134
I0
sg135
I2
sg136
I1
sg137
I00
sg138
I0
sg139
I0
sg36
I1
sg140
(lp669
(i__main__
CInspection
p670
(dp671
g144
I0
sg145
I01
sg146
F1.0
sbasg147
I0
sg148
F0.0
sg149
I0
sg22
I1
sg150
I0
sg151
F0.0
sba(i__main__
CrackData
p672
(dp673
g32
I1
sg33
F15.939
sg133
I0
sg2
I0
sg34
F2.7687689361369157
sg134
I0
sg135
I2
sg136
I1
sg137
I00
sg138
I0
sg139
I0
sg36
I1
sg140
(lp674
(i__main__
CInspection
p675
(dp676
g144
I0
sg145
I01
sg146
F1.0
sbasg147
I0
sg148
F0.0
sg149
I0
sg22
I1
sg150
I0
sg151
F0.0
sba(i__main__
CrackData
p677
(dp678
g32
I1
sg33
F15.939
sg133
I0
sg2
I0
sg34
F2.7687689361369157
sg134
I0
sg135
I2
sg136
I1
sg137
I00
sg138
I0
sg139
I0
sg36
I1
sg140
(lp679
(i__main__
CInspection
p680
(dp681
g144
I0
sg145
I01
sg146
F1.0
sbasg147
I0
sg148
F0.0
sg149
I0
sg22
I1
sg150
I0
sg151
F0.0
sba(i__main__
CrackData
p682
(dp683
g32
I1
sg33
F16.562
sg133
I0
sg2
I0
sg34
F2.8071109146115085
sg134
I0
sg135
I2
sg136
I1
sg137
I00
sg138
I0
sg139
I0
sg36
I1
sg140
(lp684
(i__main__
CInspection
p685
(dp686
g144
I0
sg145
I01
sg146
F1.0
sbasg147
I0
sg148
F0.0
sg149
I0
sg22
I1
sg150
I0
sg151
F0.0
sba(i__main__
CrackData
p687
(dp688
g32
I1
sg33
F16.562
sg133
I0
sg2
I0
sg34
F2.8071109146115085
sg134
I0
sg135
I2
sg136
I1
sg137
I00
sg138
I0
sg139
I0
sg36
I1
sg140
(lp689
(i__main__
CInspection
p690
(dp691
g144
I0
sg145
I01
sg146
F1.0
sbasg147
I0
sg148
F0.0
sg149
I0
sg22
I1
sg150
I0
sg151
F0.0
sba(i__main__
CrackData
p692
(dp693
g32
I1
sg33
F16.74
sg133
I0
sg2
I0
sg34
F2.817801065061329
sg134
I0
sg135
I2
sg136
I1
sg137
I00
sg138
I0
sg139
I0
sg36
I1
sg140
(lp694
(i__main__
CInspection
p695
(dp696
g144
I0
sg145
I01
sg146
F1.0
sbasg147
I0
sg148
F0.0
sg149
I0
sg22
I1
sg150
I0
sg151
F0.0
sba(i__main__
CrackData
p697
(dp698
g32
I1
sg33
F16.74
sg133
I0
sg2
I0
sg34
F2.817801065061329
sg134
I0
sg135
I2
sg136
I1
sg137
I00
sg138
I0
sg139
I0
sg36
I1
sg140
(lp699
(i__main__
CInspection
p700
(dp701
g144
I0
sg145
I01
sg146
F1.0
sbasg147
I0
sg148
F0.0
sg149
I0
sg22
I1
sg150
I0
sg151
F0.0
sba(i__main__
CrackData
p702
(dp703
g32
I1
sg33
F16.74
sg133
I0
sg2
I0
sg34
F2.817801065061329
sg134
I0
sg135
I2
sg136
I1
sg137
I00
sg138
I0
sg139
I0
sg36
I1
sg140
(lp704
(i__main__
CInspection
p705
(dp706
g144
I0
sg145
I01
sg146
F1.0
sbasg147
I0
sg148
F0.0
sg149
I0
sg22
I1
sg150
I0
sg151
F0.0
sba(i__main__
CrackData
p707
(dp708
g32
I1
sg33
F17.185
sg133
I0
sg2
I0
sg34
F2.844036910301797
sg134
I0
sg135
I2
sg136
I1
sg137
I00
sg138
I0
sg139
I0
sg36
I1
sg140
(lp709
(i__main__
CInspection
p710
(dp711
g144
I0
sg145
I01
sg146
F1.0
sbasg147
I0
sg148
F0.0
sg149
I0
sg22
I1
sg150
I0
sg151
F0.0
sba(i__main__
CrackData
p712
(dp713
g32
I1
sg33
F17.541
sg133
I0
sg2
I0
sg34
F2.864540997861643
sg134
I0
sg135
I2
sg136
I1
sg137
I00
sg138
I0
sg139
I0
sg36
I1
sg140
(lp714
(i__main__
CInspection
p715
(dp716
g144
I0
sg145
I01
sg146
F1.0
sbasg147
I0
sg148
F0.0
sg149
I0
sg22
I1
sg150
I0
sg151
F0.0
sba(i__main__
CrackData
p717
(dp718
g32
I1
sg33
F18.1462
sg133
I0
sg2
I0
sg34
F2.8984611723994727
sg134
I0
sg135
I2
sg136
I1
sg137
I00
sg138
I0
sg139
I0
sg36
I1
sg140
(lp719
(i__main__
CInspection
p720
(dp721
g144
I0
sg145
I01
sg146
F1.0
sbasg147
I0
sg148
F0.0
sg149
I0
sg22
I1
sg150
I0
sg151
F0.0
sba(i__main__
CrackData
p722
(dp723
g32
I1
sg33
F18.1462
sg133
I0
sg2
I0
sg34
F2.8984611723994727
sg134
I0
sg135
I2
sg136
I1
sg137
I00
sg138
I0
sg139
I0
sg36
I1
sg140
(lp724
(i__main__
CInspection
p725
(dp726
g144
I0
sg145
I01
sg146
F1.0
sbasg147
I0
sg148
F0.0
sg149
I0
sg22
I1
sg150
I0
sg151
F0.0
sba(i__main__
CrackData
p727
(dp728
g32
I1
sg33
F18.52
sg133
I0
sg2
I0
sg34
F2.918851229218033
sg134
I0
sg135
I2
sg136
I1
sg137
I00
sg138
I0
sg139
I0
sg36
I1
sg140
(lp729
(i__main__
CInspection
p730
(dp731
g144
I0
sg145
I01
sg146
F1.0
sbasg147
I0
sg148
F0.0
sg149
I0
sg22
I1
sg150
I0
sg151
F0.0
sba(i__main__
CrackData
p732
(dp733
g32
I1
sg33
F18.52
sg133
I0
sg2
I0
sg34
F2.918851229218033
sg134
I0
sg135
I2
sg136
I1
sg137
I00
sg138
I0
sg139
I0
sg36
I1
sg140
(lp734
(i__main__
CInspection
p735
(dp736
g144
I0
sg145
I01
sg146
F1.0
sbasg147
I0
sg148
F0.0
sg149
I0
sg22
I1
sg150
I0
sg151
F0.0
sba(i__main__
CrackData
p737
(dp738
g32
I1
sg33
F18.7514
sg133
I0
sg2
I0
sg34
F2.9312684162956697
sg134
I0
sg135
I2
sg136
I1
sg137
I00
sg138
I0
sg139
I0
sg36
I1
sg140
(lp739
(i__main__
CInspection
p740
(dp741
g144
I0
sg145
I01
sg146
F1.0
sbasg147
I0
sg148
F0.0
sg149
I0
sg22
I1
sg150
I0
sg151
F0.0
sba(i__main__
CrackData
p742
(dp743
g32
I1
sg33
F19.2676
sg133
I0
sg2
I0
sg34
F2.9584249287434767
sg134
I0
sg135
I2
sg136
I1
sg137
I00
sg138
I0
sg139
I0
sg36
I1
sg140
(lp744
(i__main__
CInspection
p745
(dp746
g144
I0
sg145
I01
sg146
F1.0
sbasg147
I0
sg148
F0.0
sg149
I0
sg22
I1
sg150
I0
sg151
F0.0
sba(i__main__
CrackData
p747
(dp748
g32
I1
sg33
F19.3744
sg133
I0
sg2
I0
sg34
F2.9639526070179647
sg134
I0
sg135
I2
sg136
I1
sg137
I00
sg138
I0
sg139
I0
sg36
I1
sg140
(lp749
(i__main__
CInspection
p750
(dp751
g144
I0
sg145
I01
sg146
F1.0
sbasg147
I0
sg148
F0.0
sg149
I0
sg22
I1
sg150
I0
sg151
F0.0
sba(i__main__
CrackData
p752
(dp753
g32
I1
sg33
F19.855
sg133
I0
sg2
I0
sg34
F2.988455864583215
sg134
I0
sg135
I2
sg136
I1
sg137
I00
sg138
I0
sg139
I0
sg36
I1
sg140
(lp754
(i__main__
CInspection
p755
(dp756
g144
I0
sg145
I01
sg146
F1.0
sbasg147
I0
sg148
F0.0
sg149
I0
sg22
I1
sg150
I0
sg151
F0.0
sba(i__main__
CrackData
p757
(dp758
g32
I1
sg33
F20.389
sg133
I0
sg2
I0
sg34
F3.014995539734837
sg134
I0
sg135
I2
sg136
I1
sg137
I00
sg138
I0
sg139
I0
sg36
I1
sg140
(lp759
(i__main__
CInspection
p760
(dp761
g144
I0
sg145
I01
sg146
F1.0
sbasg147
I0
sg148
F0.0
sg149
I0
sg22
I1
sg150
I0
sg151
F0.0
sba(i__main__
CrackData
p762
(dp763
g32
I1
sg33
F21.19
sg133
I0
sg2
I0
sg34
F3.0535293722802077
sg134
I0
sg135
I2
sg136
I1
sg137
I00
sg138
I0
sg139
I0
sg36
I1
sg140
(lp764
(i__main__
CInspection
p765
(dp766
g144
I0
sg145
I01
sg146
F1.0
sbasg147
I0
sg148
F0.0
sg149
I0
sg22
I1
sg150
I0
sg151
F0.0
sba(i__main__
CrackData
p767
(dp768
g32
I1
sg33
F22.08
sg133
I0
sg2
I0
sg34
F3.0946722214088944
sg134
I0
sg135
I2
sg136
I1
sg137
I00
sg138
I0
sg139
I0
sg36
I1
sg140
(lp769
(i__main__
CInspection
p770
(dp771
g144
I0
sg145
I01
sg146
F1.0
sbasg147
I0
sg148
F0.0
sg149
I0
sg22
I1
sg150
I0
sg151
F0.0
sba(i__main__
CrackData
p772
(dp773
g32
I1
sg33
F22.08
sg133
I0
sg2
I0
sg34
F3.0946722214088944
sg134
I0
sg135
I2
sg136
I1
sg137
I00
sg138
I0
sg139
I0
sg36
I1
sg140
(lp774
(i__main__
CInspection
p775
(dp776
g144
I0
sg145
I01
sg146
F1.0
sbasg147
I0
sg148
F0.0
sg149
I0
sg22
I1
sg150
I0
sg151
F0.0
sba(i__main__
CrackData
p777
(dp778
g32
I1
sg33
F22.6229
sg133
I0
sg2
I0
sg34
F3.1189626675986046
sg134
I0
sg135
I2
sg136
I1
sg137
I00
sg138
I0
sg139
I0
sg36
I1
sg140
(lp779
(i__main__
CInspection
p780
(dp781
g144
I0
sg145
I01
sg146
F1.0
sbasg147
I0
sg148
F0.0
sg149
I0
sg22
I1
sg150
I0
sg151
F0.0
sba(i__main__
CrackData
p782
(dp783
g32
I1
sg33
F22.97
sg133
I0
sg2
I0
sg34
F3.134189016701007
sg134
I0
sg135
I2
sg136
I1
sg137
I00
sg138
I0
sg139
I0
sg36
I1
sg140
(lp784
(i__main__
CInspection
p785
(dp786
g144
I0
sg145
I01
sg146
F1.0
sbasg147
I0
sg148
F0.0
sg149
I0
sg22
I1
sg150
I0
sg151
F0.0
sba(i__main__
CrackData
p787
(dp788
g32
I1
sg33
F22.97
sg133
I0
sg2
I0
sg34
F3.134189016701007
sg134
I0
sg135
I2
sg136
I1
sg137
I00
sg138
I0
sg139
I0
sg36
I1
sg140
(lp789
(i__main__
CInspection
p790
(dp791
g144
I0
sg145
I01
sg146
F1.0
sbasg147
I0
sg148
F0.0
sg149
I0
sg22
I1
sg150
I0
sg151
F0.0
sba(i__main__
CrackData
p792
(dp793
g32
I1
sg33
F22.97
sg133
I0
sg2
I0
sg34
F3.134189016701007
sg134
I0
sg135
I2
sg136
I1
sg137
I00
sg138
I0
sg139
I0
sg36
I1
sg140
(lp794
(i__main__
CInspection
p795
(dp796
g144
I0
sg145
I01
sg146
F1.0
sbasg147
I0
sg148
F0.0
sg149
I0
sg22
I1
sg150
I0
sg151
F0.0
sba(i__main__
CrackData
p797
(dp798
g32
I1
sg33
F23.415
sg133
I0
sg2
I0
sg34
F3.153376842635505
sg134
I0
sg135
I2
sg136
I1
sg137
I00
sg138
I0
sg139
I0
sg36
I1
sg140
(lp799
(i__main__
CInspection
p800
(dp801
g144
I0
sg145
I01
sg146
F1.0
sbasg147
I0
sg148
F0.0
sg149
I0
sg22
I1
sg150
I0
sg151
F0.0
sba(i__main__
CrackData
p802
(dp803
g32
I1
sg33
F27.8116
sg133
I0
sg2
I0
sg34
F3.3254531998523156
sg134
I0
sg135
I2
sg136
I1
sg137
I00
sg138
I0
sg139
I0
sg36
I1
sg140
(lp804
(i__main__
CInspection
p805
(dp806
g144
I0
sg145
I01
sg146
F1.0
sbasg147
I0
sg148
F0.0
sg149
I0
sg22
I1
sg150
I0
sg151
F0.0
sba(i__main__
CrackData
p807
(dp808
g32
I1
sg33
F27.8116
sg133
I0
sg2
I0
sg34
F3.3254531998523156
sg134
I0
sg135
I2
sg136
I1
sg137
I00
sg138
I0
sg139
I0
sg36
I1
sg140
(lp809
(i__main__
CInspection
p810
(dp811
g144
I0
sg145
I01
sg146
F1.0
sbasg147
I0
sg148
F0.0
sg149
I0
sg22
I1
sg150
I0
sg151
F0.0
sba(i__main__
CrackData
p812
(dp813
g32
I1
sg33
F27.8116
sg133
I0
sg2
I0
sg34
F3.3254531998523156
sg134
I0
sg135
I2
sg136
I1
sg137
I00
sg138
I0
sg139
I0
sg36
I1
sg140
(lp814
(i__main__
CInspection
p815
(dp816
g144
I0
sg145
I01
sg146
F1.0
sbasg147
I0
sg148
F0.0
sg149
I0
sg22
I1
sg150
I0
sg151
F0.0
sba(i__main__
CrackData
p817
(dp818
g32
I1
sg33
F27.8116
sg133
I0
sg2
I0
sg34
F3.3254531998523156
sg134
I0
sg135
I2
sg136
I1
sg137
I00
sg138
I0
sg139
I0
sg36
I1
sg140
(lp819
(i__main__
CInspection
p820
(dp821
g144
I0
sg145
I01
sg146
F1.0
sbasg147
I0
sg148
F0.0
sg149
I0
sg22
I1
sg150
I0
sg151
F0.0
sba(i__main__
CrackData
p822
(dp823
g32
I1
sg33
F27.8116
sg133
I0
sg2
I0
sg34
F3.3254531998523156
sg134
I0
sg135
I2
sg136
I1
sg137
I00
sg138
I0
sg139
I0
sg36
I1
sg140
(lp824
(i__main__
CInspection
p825
(dp826
g144
I0
sg145
I01
sg146
F1.0
sbasg147
I0
sg148
F0.0
sg149
I0
sg22
I1
sg150
I0
sg151
F0.0
sba(i__main__
CrackData
p827
(dp828
g32
I1
sg33
F27.8116
sg133
I0
sg2
I0
sg34
F3.3254531998523156
sg134
I0
sg135
I2
sg136
I1
sg137
I00
sg138
I0
sg139
I0
sg36
I1
sg140
(lp829
(i__main__
CInspection
p830
(dp831
g144
I0
sg145
I01
sg146
F1.0
sbasg147
I0
sg148
F0.0
sg149
I0
sg22
I1
sg150
I0
sg151
F0.0
sba(i__main__
CrackData
p832
(dp833
g32
I1
sg33
F27.8116
sg133
I0
sg2
I0
sg34
F3.3254531998523156
sg134
I0
sg135
I2
sg136
I1
sg137
I00
sg138
I0
sg139
I0
sg36
I1
sg140
(lp834
(i__main__
CInspection
p835
(dp836
g144
I0
sg145
I01
sg146
F1.0
sbasg147
I0
sg148
F0.0
sg149
I0
sg22
I1
sg150
I0
sg151
F0.0
sba(i__main__
CrackData
p837
(dp838
g32
I1
sg33
F27.8116
sg133
I0
sg2
I0
sg34
F3.3254531998523156
sg134
I0
sg135
I2
sg136
I1
sg137
I00
sg138
I0
sg139
I0
sg36
I1
sg140
(lp839
(i__main__
CInspection
p840
(dp841
g144
I0
sg145
I01
sg146
F1.0
sbasg147
I0
sg148
F0.0
sg149
I0
sg22
I1
sg150
I0
sg151
F0.0
sba(i__main__
CrackData
p842
(dp843
g32
I1
sg33
F27.8116
sg133
I0
sg2
I0
sg34
F3.3254531998523156
sg134
I0
sg135
I2
sg136
I1
sg137
I00
sg138
I0
sg139
I0
sg36
I1
sg140
(lp844
(i__main__
CInspection
p845
(dp846
g144
I0
sg145
I01
sg146
F1.0
sbasg147
I0
sg148
F0.0
sg149
I0
sg22
I1
sg150
I0
sg151
F0.0
sba(i__main__
CrackData
p847
(dp848
g32
I1
sg33
F27.8116
sg133
I0
sg2
I0
sg34
F3.3254531998523156
sg134
I0
sg135
I2
sg136
I1
sg137
I00
sg138
I0
sg139
I0
sg36
I1
sg140
(lp849
(i__main__
CInspection
p850
(dp851
g144
I0
sg145
I01
sg146
F1.0
sbasg147
I0
sg148
F0.0
sg149
I0
sg22
I1
sg150
I0
sg151
F0.0
sba(i__main__
CrackData
p852
(dp853
g32
I1
sg33
F27.8116
sg133
I0
sg2
I0
sg34
F3.3254531998523156
sg134
I0
sg135
I2
sg136
I1
sg137
I00
sg138
I0
sg139
I0
sg36
I1
sg140
(lp854
(i__main__
CInspection
p855
(dp856
g144
I0
sg145
I01
sg146
F1.0
sbasg147
I0
sg148
F0.0
sg149
I0
sg22
I1
sg150
I0
sg151
F0.0
sba(i__main__
CrackData
p857
(dp858
g32
I1
sg33
F27.8116
sg133
I0
sg2
I0
sg34
F3.3254531998523156
sg134
I0
sg135
I2
sg136
I1
sg137
I00
sg138
I0
sg139
I0
sg36
I1
sg140
(lp859
(i__main__
CInspection
p860
(dp861
g144
I0
sg145
I01
sg146
F1.0
sbasg147
I0
sg148
F0.0
sg149
I0
sg22
I1
sg150
I0
sg151
F0.0
sba(i__main__
CrackData
p862
(dp863
g32
I1
sg33
F27.8116
sg133
I0
sg2
I0
sg34
F3.3254531998523156
sg134
I0
sg135
I2
sg136
I1
sg137
I00
sg138
I0
sg139
I0
sg36
I1
sg140
(lp864
(i__main__
CInspection
p865
(dp866
g144
I0
sg145
I01
sg146
F1.0
sbasg147
I0
sg148
F0.0
sg149
I0
sg22
I1
sg150
I0
sg151
F0.0
sbasS'crkmax'
p867
F27.8116
sS'decision_level'
p868
(lp869
sS'fcalc'
p870
F0.0
sS'pfit'
p871
(lp872
F0.14253877954138333
aF0.4316359659028641
aF0.5568115606341754
aF0.6104943263440005
aF0.6582956542153539
aF0.7005580969863435
aF0.7377332667843698
aF0.770315811169636
aF0.7988023899040197
aF0.8236675731773926
aF0.8453508791992357
aF0.8807241260208731
aF0.895085708274967
aF0.9076125902546164
aF0.912164903300514
aF0.9185466576335767
aF0.9379912879895645
aF0.9451107782261083
aF0.9464252259472903
aF0.9477055280208785
aF0.9557876005391613
aF0.9607240125446492
aF0.9616372530954094
aF0.9625273679066243
aF0.965065152703762
aF0.9722573110795882
aF0.9737311824253644
aF0.9752318168335545
aF0.9783488787828628
aF0.981453266911358
aF0.9822480523991353
aF0.9840763933825518
aF0.985390605560219
aF0.9873600251151513
aF0.9884297356180639
aF0.9890419056532219
aF0.9902833163702532
aF0.9905203829590162
aF0.9915113912077029
aF0.9924810810877098
aF0.993715220276692
aF0.9948316863931765
aF0.995404600780016
aF0.9957341513439948
aF0.9961192661524624
aF0.998407432511771
asg135
I2
sS'clevel'
p873
S'95% confidence bound'
p874
sS'astar'
p875
F0.0
sS'decision_V21'
p876
(lp877
sS'asize'
p878
S'a90'
p879
sS'mhat'
p880
F0.0
sS'info_row'
p881
I0
sS'm90'
p882
F0.0
sS'pf_covariance'
p883
(lp884
F1.5246618038386621
aF-0.8786621570554072
aF1.6517272045716302
asS'decision_table_thresholds'
p885
(lp886
sg879
F0.0
sS'pod'
p887
(lp888
sS'repeatability_error'
p889
I0
sS'sig_guess'
p890
F0.0
sg136
I0
sS'PlotTitle'
p891
g26
sS'rlonx'
p892
(lp893
sS'data_column'
p894
I0
sS'linfit'
p895
(dp896
S'slope'
p897
I0
sS'rms'
p898
I0
sS'intercept'
p899
I0
ssS'iret'
p900
I00
sS'pod_bounds'
p901
(lp902
sS'deter'
p903
F11874.396764837815
sS'sighat'
p904
F0.5995530282512576
sS'nexcluded'
p905
I0
sS'have_guess'
p906
I00
sS'variance'
p907
(lp908
(lp909
F-136.20322261437443
aF-72.46388588804324
aa(lp910
F-72.44698928432733
aF-125.72527140383808
aasS'amax'
p911
F30.0
sS'fit_errors'
p912
(lp913
I0
aI0
aI0
asS'info'
p914
(lp915
sS'fnorm'
p916
F1.253550374276901e-08
sS'meas'
p917
(dp918
g14
(lp919
I0
aI0
aI1
aI0
aI1
aI1
aI0
aI0
aI0
aI1
aI0
aI0
aI0
aI0
aI0
aI0
aI0
aI1
aI0
aI1
aI1
aI1
aI0
aI0
aI1
aI1
aI1
aI1
aI1
aI1
aI0
aI0
aI0
aI1
aI1
aI1
aI1
aI1
aI0
aI0
aI0
aI0
aI0
aI0
aI0
aI1
aI1
aI1
aI1
aI1
aI1
aI1
aI0
aI0
aI0
aI1
aI0
aI1
aI1
aI1
aI1
aI1
aI1
aI1
aI1
aI1
aI1
aI0
aI1
aI1
aI1
aI1
aI1
aI1
aI1
aI1
aI1
aI1
aI1
aI1
aI1
aI1
aI1
aI1
aI1
aI1
aI1
aI1
aI1
aI1
aI1
aI1
aI1
aI1
aI1
aI1
aI1
aI1
aI1
aI1
aI1
aI1
aI1
aI1
aI1
aI1
aI1
aI1
aI1
aI1
aI1
aI1
aI1
aI1
aI1
aI1
aI1
aI1
aI1
aI1
aI1
aI1
aI1
aI1
aI1
aI1
aI1
aI1
aI1
aI1
aI1
aI1
aI1
aI1
aI1
aI1
aI1
aI1
aI1
aI1
aI1
aI1
aI1
aI1
assS'flaw_name'
p920
g26
sS'EV_Bartlett'
p921
F0.0
sS'analyses'
p922
(lp923
sS'alevel'
p924
S'a90/95'
p925
sS'decision_V12'
p926
(lp927
sg32
I144
sS'analysis'
p928
I2
sS'decision_V11'
p929
(lp930
sS'acount'
p931
I0
sS'pod_threshold'
p932
I0
sS'xmax'
p933
F27.8116
sS'mu_guess'
p934
F0.0
sS'npts'
p935
I46
sS'model'
p936
I0
sS'rlony'
p937
(lp938
sS'flaw_units'
p939
g26
sS'decision_a50'
p940
(lp941
sS'signalmax'
p942
I0
sb.